

Microchip Technology PIC LITE Macro Assembler V1.44 build -154322312 
                                                                                               Fri Jan 19 16:03:05 2018

Microchip Technology Omniscient Code Generator v1.44 (Free mode) build 201709140600
     1                           	processor	16F18875
     2                           	opt	pw 120
     3                           	opt	lm
     4                           	psect	nvBANK0,global,class=BANK0,space=1,delta=1
     5                           	psect	stringtext1,global,class=STRCODE,delta=2
     6                           	psect	stringtext2,global,class=STRCODE,delta=2
     7                           	psect	stringtext3,global,class=STRCODE,delta=2
     8                           	psect	stringtext4,global,class=STRCODE,delta=2
     9                           	psect	stringtext5,global,class=STRCODE,delta=2
    10                           	psect	stringtext6,global,class=STRCODE,delta=2
    11                           	psect	stringtext7,global,class=STRCODE,delta=2
    12                           	psect	cinit,global,class=CODE,merge=1,delta=2
    13                           	psect	bssCOMMON,global,class=COMMON,space=1,delta=1
    14                           	psect	bssBANK0,global,class=BANK0,space=1,delta=1
    15                           	psect	clrtext,global,class=CODE,delta=2
    16                           	psect	cstackCOMMON,global,class=COMMON,space=1,delta=1
    17                           	psect	cstackBANK0,global,class=BANK0,space=1,delta=1
    18                           	psect	maintext,global,class=CODE,merge=1,split=1,delta=2
    19                           	psect	text1,local,class=CODE,merge=1,delta=2
    20                           	psect	text2,local,class=CODE,merge=1,delta=2
    21                           	psect	text3,local,class=CODE,merge=1,delta=2
    22                           	psect	text4,local,class=CODE,merge=1,delta=2
    23                           	psect	text5,local,class=CODE,merge=1,delta=2
    24                           	psect	text6,local,class=CODE,merge=1,delta=2
    25                           	psect	text7,local,class=CODE,merge=1,delta=2
    26                           	psect	text8,local,class=CODE,merge=1,delta=2
    27                           	psect	text9,local,class=CODE,merge=1,delta=2
    28                           	psect	text10,local,class=CODE,merge=1,delta=2
    29                           	psect	intentry,global,class=CODE,delta=2
    30                           	psect	text12,local,class=CODE,merge=1,delta=2
    31                           	psect	text13,local,class=CODE,merge=1,delta=2
    32                           	dabs	1,0x7E,2
    33  0000                     
    34                           ; Version 1.44
    35                           ; Generated 14/09/2017 GMT
    36                           ; 
    37                           ; Copyright © 2017, Microchip Technology Inc. and its subsidiaries ("Microchip")
    38                           ; All rights reserved.
    39                           ; 
    40                           ; This software is developed by Microchip Technology Inc. and its subsidiaries ("Microch
      +                          ip").
    41                           ; 
    42                           ; Redistribution and use in source and binary forms, with or without modification, are
    43                           ; permitted provided that the following conditions are met:
    44                           ; 
    45                           ;     1. Redistributions of source code must retain the above copyright notice, this lis
      +                          t of
    46                           ;        conditions and the following disclaimer.
    47                           ; 
    48                           ;     2. Redistributions in binary form must reproduce the above copyright notice, this 
      +                          list
    49                           ;        of conditions and the following disclaimer in the documentation and/or other
    50                           ;        materials provided with the distribution.
    51                           ; 
    52                           ;     3. Microchip's name may not be used to endorse or promote products derived from th
      +                          is
    53                           ;        software without specific prior written permission.
    54                           ; 
    55                           ; THIS SOFTWARE IS PROVIDED BY MICROCHIP "AS IS" AND ANY EXPRESS OR IMPLIED WARRANTIES,
    56                           ; INCLUDING, BUT NOT LIMITED TO, THE IMPLIED WARRANTIES OF MERCHANTABILITY AND FITNESS F
      +                          OR
    57                           ; PURPOSE ARE DISCLAIMED.  IN NO EVENT SHALL MICROCHIP BE LIABLE FOR ANY DIRECT, INDIREC
      +                          T,
    58                           ; INCIDENTAL, SPECIAL, EXEMPLARY, OR CONSEQUENTIAL DAMAGES (INCLUDING BUT NOT LIMITED TO
    59                           ; PROCUREMENT OF SUBSTITUTE GOODS OR SERVICES; LOSS OF USE, DATA OR PROFITS; OR BUSINESS
    60                           ; INTERRUPTION) HOWSOEVER CAUSED AND ON ANY THEORY OF LIABILITY, WHETHER IN CONTRACT, ST
      +                          RICT
    61                           ; LIABILITY, OR TORT (INCLUDING NEGLIGENCE OR OTHERWISE) ARISING IN ANY WAY OUT OF THE U
      +                          SE OF
    62                           ; THIS SOFTWARE, EVEN IF ADVISED OF THE POSSIBILITY OF SUCH DAMAGE.
    63                           ; 
    64                           ; 
    65                           ; Code-generator required, PIC16F18875 Definitions
    66                           ; 
    67                           ; SFR Addresses
    68  0000                     	;# 
    69  0001                     	;# 
    70  0002                     	;# 
    71  0003                     	;# 
    72  0004                     	;# 
    73  0005                     	;# 
    74  0006                     	;# 
    75  0007                     	;# 
    76  0008                     	;# 
    77  0009                     	;# 
    78  000A                     	;# 
    79  000B                     	;# 
    80  000C                     	;# 
    81  000D                     	;# 
    82  000E                     	;# 
    83  000F                     	;# 
    84  0010                     	;# 
    85  0011                     	;# 
    86  0012                     	;# 
    87  0013                     	;# 
    88  0014                     	;# 
    89  0015                     	;# 
    90  0016                     	;# 
    91  0017                     	;# 
    92  0018                     	;# 
    93  0019                     	;# 
    94  001A                     	;# 
    95  001C                     	;# 
    96  001C                     	;# 
    97  001D                     	;# 
    98  001D                     	;# 
    99  001E                     	;# 
   100  001F                     	;# 
   101  008C                     	;# 
   102  008C                     	;# 
   103  008D                     	;# 
   104  008E                     	;# 
   105  008E                     	;# 
   106  008F                     	;# 
   107  0090                     	;# 
   108  0090                     	;# 
   109  0091                     	;# 
   110  0093                     	;# 
   111  0094                     	;# 
   112  0095                     	;# 
   113  0096                     	;# 
   114  0097                     	;# 
   115  0098                     	;# 
   116  0099                     	;# 
   117  009A                     	;# 
   118  009B                     	;# 
   119  009C                     	;# 
   120  009D                     	;# 
   121  009E                     	;# 
   122  010C                     	;# 
   123  010D                     	;# 
   124  010E                     	;# 
   125  010E                     	;# 
   126  010F                     	;# 
   127  0110                     	;# 
   128  0110                     	;# 
   129  0111                     	;# 
   130  0112                     	;# 
   131  0112                     	;# 
   132  0113                     	;# 
   133  0114                     	;# 
   134  0114                     	;# 
   135  0115                     	;# 
   136  0116                     	;# 
   137  0116                     	;# 
   138  0117                     	;# 
   139  0119                     	;# 
   140  0119                     	;# 
   141  0119                     	;# 
   142  011A                     	;# 
   143  011A                     	;# 
   144  011A                     	;# 
   145  011B                     	;# 
   146  011B                     	;# 
   147  011B                     	;# 
   148  011B                     	;# 
   149  011B                     	;# 
   150  011C                     	;# 
   151  011C                     	;# 
   152  011C                     	;# 
   153  011D                     	;# 
   154  011D                     	;# 
   155  011D                     	;# 
   156  011E                     	;# 
   157  011E                     	;# 
   158  011E                     	;# 
   159  011F                     	;# 
   160  011F                     	;# 
   161  011F                     	;# 
   162  011F                     	;# 
   163  011F                     	;# 
   164  018C                     	;# 
   165  018D                     	;# 
   166  018E                     	;# 
   167  018F                     	;# 
   168  0190                     	;# 
   169  0191                     	;# 
   170  0192                     	;# 
   171  0196                     	;# 
   172  0197                     	;# 
   173  0198                     	;# 
   174  0199                     	;# 
   175  019A                     	;# 
   176  019B                     	;# 
   177  019C                     	;# 
   178  020C                     	;# 
   179  020C                     	;# 
   180  020D                     	;# 
   181  020E                     	;# 
   182  020F                     	;# 
   183  020F                     	;# 
   184  0210                     	;# 
   185  0210                     	;# 
   186  0211                     	;# 
   187  0211                     	;# 
   188  0212                     	;# 
   189  0212                     	;# 
   190  0213                     	;# 
   191  0214                     	;# 
   192  0215                     	;# 
   193  0215                     	;# 
   194  0216                     	;# 
   195  0216                     	;# 
   196  0217                     	;# 
   197  0217                     	;# 
   198  0218                     	;# 
   199  0218                     	;# 
   200  0219                     	;# 
   201  021A                     	;# 
   202  021B                     	;# 
   203  021B                     	;# 
   204  021C                     	;# 
   205  021C                     	;# 
   206  021D                     	;# 
   207  021D                     	;# 
   208  021E                     	;# 
   209  021F                     	;# 
   210  028C                     	;# 
   211  028C                     	;# 
   212  028D                     	;# 
   213  028D                     	;# 
   214  028E                     	;# 
   215  028F                     	;# 
   216  0290                     	;# 
   217  0290                     	;# 
   218  0291                     	;# 
   219  0292                     	;# 
   220  0292                     	;# 
   221  0293                     	;# 
   222  0293                     	;# 
   223  0294                     	;# 
   224  0295                     	;# 
   225  0296                     	;# 
   226  0296                     	;# 
   227  0297                     	;# 
   228  0298                     	;# 
   229  0298                     	;# 
   230  0299                     	;# 
   231  0299                     	;# 
   232  029A                     	;# 
   233  029B                     	;# 
   234  029C                     	;# 
   235  029C                     	;# 
   236  029D                     	;# 
   237  030C                     	;# 
   238  030C                     	;# 
   239  030D                     	;# 
   240  030E                     	;# 
   241  030F                     	;# 
   242  0310                     	;# 
   243  0310                     	;# 
   244  0311                     	;# 
   245  0312                     	;# 
   246  0313                     	;# 
   247  0314                     	;# 
   248  0314                     	;# 
   249  0315                     	;# 
   250  0316                     	;# 
   251  0317                     	;# 
   252  0318                     	;# 
   253  0318                     	;# 
   254  0319                     	;# 
   255  031A                     	;# 
   256  031B                     	;# 
   257  031C                     	;# 
   258  031C                     	;# 
   259  031D                     	;# 
   260  031E                     	;# 
   261  031F                     	;# 
   262  038C                     	;# 
   263  038D                     	;# 
   264  038E                     	;# 
   265  0390                     	;# 
   266  0391                     	;# 
   267  0392                     	;# 
   268  040C                     	;# 
   269  040D                     	;# 
   270  040E                     	;# 
   271  040F                     	;# 
   272  0410                     	;# 
   273  0411                     	;# 
   274  0416                     	;# 
   275  0416                     	;# 
   276  0417                     	;# 
   277  0418                     	;# 
   278  0418                     	;# 
   279  0419                     	;# 
   280  041A                     	;# 
   281  041A                     	;# 
   282  041B                     	;# 
   283  041C                     	;# 
   284  041C                     	;# 
   285  041D                     	;# 
   286  041E                     	;# 
   287  041F                     	;# 
   288  048C                     	;# 
   289  048C                     	;# 
   290  048D                     	;# 
   291  048E                     	;# 
   292  048F                     	;# 
   293  048F                     	;# 
   294  0490                     	;# 
   295  0491                     	;# 
   296  0492                     	;# 
   297  0492                     	;# 
   298  0493                     	;# 
   299  0494                     	;# 
   300  0495                     	;# 
   301  0495                     	;# 
   302  0496                     	;# 
   303  0497                     	;# 
   304  0498                     	;# 
   305  0499                     	;# 
   306  049A                     	;# 
   307  049B                     	;# 
   308  049C                     	;# 
   309  049D                     	;# 
   310  050C                     	;# 
   311  050C                     	;# 
   312  050D                     	;# 
   313  050E                     	;# 
   314  050F                     	;# 
   315  050F                     	;# 
   316  0510                     	;# 
   317  0511                     	;# 
   318  0512                     	;# 
   319  0512                     	;# 
   320  0513                     	;# 
   321  0514                     	;# 
   322  0515                     	;# 
   323  0515                     	;# 
   324  0516                     	;# 
   325  0517                     	;# 
   326  0518                     	;# 
   327  0519                     	;# 
   328  051A                     	;# 
   329  051B                     	;# 
   330  051C                     	;# 
   331  051D                     	;# 
   332  058C                     	;# 
   333  058C                     	;# 
   334  058D                     	;# 
   335  058E                     	;# 
   336  058F                     	;# 
   337  058F                     	;# 
   338  0590                     	;# 
   339  0591                     	;# 
   340  0592                     	;# 
   341  0593                     	;# 
   342  060C                     	;# 
   343  060D                     	;# 
   344  060E                     	;# 
   345  060F                     	;# 
   346  0610                     	;# 
   347  0611                     	;# 
   348  0612                     	;# 
   349  0613                     	;# 
   350  0614                     	;# 
   351  0616                     	;# 
   352  0617                     	;# 
   353  0618                     	;# 
   354  0619                     	;# 
   355  061A                     	;# 
   356  061B                     	;# 
   357  061C                     	;# 
   358  061D                     	;# 
   359  061E                     	;# 
   360  068C                     	;# 
   361  068D                     	;# 
   362  068E                     	;# 
   363  068F                     	;# 
   364  0690                     	;# 
   365  0691                     	;# 
   366  0692                     	;# 
   367  0693                     	;# 
   368  0694                     	;# 
   369  070C                     	;# 
   370  070D                     	;# 
   371  070E                     	;# 
   372  070F                     	;# 
   373  0710                     	;# 
   374  0711                     	;# 
   375  0712                     	;# 
   376  0713                     	;# 
   377  0714                     	;# 
   378  0716                     	;# 
   379  0717                     	;# 
   380  0718                     	;# 
   381  0719                     	;# 
   382  071A                     	;# 
   383  071B                     	;# 
   384  071C                     	;# 
   385  071D                     	;# 
   386  071E                     	;# 
   387  0796                     	;# 
   388  0797                     	;# 
   389  0798                     	;# 
   390  0799                     	;# 
   391  079A                     	;# 
   392  079B                     	;# 
   393  080C                     	;# 
   394  080D                     	;# 
   395  080E                     	;# 
   396  080F                     	;# 
   397  0810                     	;# 
   398  0811                     	;# 
   399  0812                     	;# 
   400  0813                     	;# 
   401  0814                     	;# 
   402  081A                     	;# 
   403  081B                     	;# 
   404  081C                     	;# 
   405  081D                     	;# 
   406  081E                     	;# 
   407  081F                     	;# 
   408  088C                     	;# 
   409  088D                     	;# 
   410  088E                     	;# 
   411  088F                     	;# 
   412  0890                     	;# 
   413  0891                     	;# 
   414  0892                     	;# 
   415  0893                     	;# 
   416  0895                     	;# 
   417  0896                     	;# 
   418  0897                     	;# 
   419  0898                     	;# 
   420  0899                     	;# 
   421  089A                     	;# 
   422  089B                     	;# 
   423  090C                     	;# 
   424  090E                     	;# 
   425  090F                     	;# 
   426  091F                     	;# 
   427  091F                     	;# 
   428  098F                     	;# 
   429  098F                     	;# 
   430  0990                     	;# 
   431  0991                     	;# 
   432  0992                     	;# 
   433  0993                     	;# 
   434  0994                     	;# 
   435  0995                     	;# 
   436  0996                     	;# 
   437  0997                     	;# 
   438  0E0F                     	;# 
   439  0E10                     	;# 
   440  0E11                     	;# 
   441  0E12                     	;# 
   442  0E13                     	;# 
   443  0E14                     	;# 
   444  0E15                     	;# 
   445  0E16                     	;# 
   446  0E17                     	;# 
   447  0E18                     	;# 
   448  0E19                     	;# 
   449  0E1A                     	;# 
   450  0E1B                     	;# 
   451  0E1C                     	;# 
   452  0E1D                     	;# 
   453  0E1E                     	;# 
   454  0E1F                     	;# 
   455  0E20                     	;# 
   456  0E21                     	;# 
   457  0E22                     	;# 
   458  0E23                     	;# 
   459  0E24                     	;# 
   460  0E25                     	;# 
   461  0E26                     	;# 
   462  0E27                     	;# 
   463  0E28                     	;# 
   464  0E29                     	;# 
   465  0E2A                     	;# 
   466  0E2B                     	;# 
   467  0E2C                     	;# 
   468  0E2D                     	;# 
   469  0E2E                     	;# 
   470  0E2F                     	;# 
   471  0E30                     	;# 
   472  0E31                     	;# 
   473  0E32                     	;# 
   474  0E33                     	;# 
   475  0E34                     	;# 
   476  0E35                     	;# 
   477  0E36                     	;# 
   478  0E37                     	;# 
   479  0E8F                     	;# 
   480  0E90                     	;# 
   481  0E91                     	;# 
   482  0E92                     	;# 
   483  0E93                     	;# 
   484  0E94                     	;# 
   485  0E95                     	;# 
   486  0E96                     	;# 
   487  0E97                     	;# 
   488  0E9C                     	;# 
   489  0E9D                     	;# 
   490  0E9E                     	;# 
   491  0EA1                     	;# 
   492  0EA2                     	;# 
   493  0EA3                     	;# 
   494  0EA4                     	;# 
   495  0EA5                     	;# 
   496  0EA9                     	;# 
   497  0EAA                     	;# 
   498  0EAB                     	;# 
   499  0EAC                     	;# 
   500  0EB1                     	;# 
   501  0EB2                     	;# 
   502  0EB3                     	;# 
   503  0EB8                     	;# 
   504  0EB9                     	;# 
   505  0EBA                     	;# 
   506  0EBB                     	;# 
   507  0EBC                     	;# 
   508  0EBD                     	;# 
   509  0EBE                     	;# 
   510  0EC3                     	;# 
   511  0EC5                     	;# 
   512  0EC6                     	;# 
   513  0EC7                     	;# 
   514  0EC8                     	;# 
   515  0EC9                     	;# 
   516  0ECA                     	;# 
   517  0ECB                     	;# 
   518  0ECC                     	;# 
   519  0F10                     	;# 
   520  0F11                     	;# 
   521  0F12                     	;# 
   522  0F13                     	;# 
   523  0F14                     	;# 
   524  0F15                     	;# 
   525  0F16                     	;# 
   526  0F17                     	;# 
   527  0F18                     	;# 
   528  0F19                     	;# 
   529  0F1A                     	;# 
   530  0F1B                     	;# 
   531  0F1C                     	;# 
   532  0F1D                     	;# 
   533  0F1E                     	;# 
   534  0F1F                     	;# 
   535  0F20                     	;# 
   536  0F21                     	;# 
   537  0F22                     	;# 
   538  0F23                     	;# 
   539  0F24                     	;# 
   540  0F25                     	;# 
   541  0F26                     	;# 
   542  0F27                     	;# 
   543  0F28                     	;# 
   544  0F29                     	;# 
   545  0F2A                     	;# 
   546  0F2B                     	;# 
   547  0F2C                     	;# 
   548  0F2D                     	;# 
   549  0F2E                     	;# 
   550  0F2F                     	;# 
   551  0F30                     	;# 
   552  0F31                     	;# 
   553  0F32                     	;# 
   554  0F38                     	;# 
   555  0F39                     	;# 
   556  0F3A                     	;# 
   557  0F3B                     	;# 
   558  0F3C                     	;# 
   559  0F3D                     	;# 
   560  0F3E                     	;# 
   561  0F3F                     	;# 
   562  0F40                     	;# 
   563  0F41                     	;# 
   564  0F43                     	;# 
   565  0F44                     	;# 
   566  0F45                     	;# 
   567  0F46                     	;# 
   568  0F47                     	;# 
   569  0F48                     	;# 
   570  0F49                     	;# 
   571  0F4A                     	;# 
   572  0F4B                     	;# 
   573  0F4C                     	;# 
   574  0F4E                     	;# 
   575  0F4F                     	;# 
   576  0F50                     	;# 
   577  0F51                     	;# 
   578  0F52                     	;# 
   579  0F53                     	;# 
   580  0F54                     	;# 
   581  0F55                     	;# 
   582  0F56                     	;# 
   583  0F57                     	;# 
   584  0F59                     	;# 
   585  0F5A                     	;# 
   586  0F5B                     	;# 
   587  0F5C                     	;# 
   588  0F5D                     	;# 
   589  0F61                     	;# 
   590  0F62                     	;# 
   591  0F64                     	;# 
   592  0F65                     	;# 
   593  0F66                     	;# 
   594  0F67                     	;# 
   595  0F68                     	;# 
   596  0F69                     	;# 
   597  0F6A                     	;# 
   598  0F6B                     	;# 
   599  0F6C                     	;# 
   600  0F6D                     	;# 
   601  0FE4                     	;# 
   602  0FE5                     	;# 
   603  0FE6                     	;# 
   604  0FE7                     	;# 
   605  0FE8                     	;# 
   606  0FE9                     	;# 
   607  0FEA                     	;# 
   608  0FEB                     	;# 
   609  0FED                     	;# 
   610  0FEE                     	;# 
   611  0FEF                     	;# 
   612  0000                     	;# 
   613  0001                     	;# 
   614  0002                     	;# 
   615  0003                     	;# 
   616  0004                     	;# 
   617  0005                     	;# 
   618  0006                     	;# 
   619  0007                     	;# 
   620  0008                     	;# 
   621  0009                     	;# 
   622  000A                     	;# 
   623  000B                     	;# 
   624  000C                     	;# 
   625  000D                     	;# 
   626  000E                     	;# 
   627  000F                     	;# 
   628  0010                     	;# 
   629  0011                     	;# 
   630  0012                     	;# 
   631  0013                     	;# 
   632  0014                     	;# 
   633  0015                     	;# 
   634  0016                     	;# 
   635  0017                     	;# 
   636  0018                     	;# 
   637  0019                     	;# 
   638  001A                     	;# 
   639  001C                     	;# 
   640  001C                     	;# 
   641  001D                     	;# 
   642  001D                     	;# 
   643  001E                     	;# 
   644  001F                     	;# 
   645  008C                     	;# 
   646  008C                     	;# 
   647  008D                     	;# 
   648  008E                     	;# 
   649  008E                     	;# 
   650  008F                     	;# 
   651  0090                     	;# 
   652  0090                     	;# 
   653  0091                     	;# 
   654  0093                     	;# 
   655  0094                     	;# 
   656  0095                     	;# 
   657  0096                     	;# 
   658  0097                     	;# 
   659  0098                     	;# 
   660  0099                     	;# 
   661  009A                     	;# 
   662  009B                     	;# 
   663  009C                     	;# 
   664  009D                     	;# 
   665  009E                     	;# 
   666  010C                     	;# 
   667  010D                     	;# 
   668  010E                     	;# 
   669  010E                     	;# 
   670  010F                     	;# 
   671  0110                     	;# 
   672  0110                     	;# 
   673  0111                     	;# 
   674  0112                     	;# 
   675  0112                     	;# 
   676  0113                     	;# 
   677  0114                     	;# 
   678  0114                     	;# 
   679  0115                     	;# 
   680  0116                     	;# 
   681  0116                     	;# 
   682  0117                     	;# 
   683  0119                     	;# 
   684  0119                     	;# 
   685  0119                     	;# 
   686  011A                     	;# 
   687  011A                     	;# 
   688  011A                     	;# 
   689  011B                     	;# 
   690  011B                     	;# 
   691  011B                     	;# 
   692  011B                     	;# 
   693  011B                     	;# 
   694  011C                     	;# 
   695  011C                     	;# 
   696  011C                     	;# 
   697  011D                     	;# 
   698  011D                     	;# 
   699  011D                     	;# 
   700  011E                     	;# 
   701  011E                     	;# 
   702  011E                     	;# 
   703  011F                     	;# 
   704  011F                     	;# 
   705  011F                     	;# 
   706  011F                     	;# 
   707  011F                     	;# 
   708  018C                     	;# 
   709  018D                     	;# 
   710  018E                     	;# 
   711  018F                     	;# 
   712  0190                     	;# 
   713  0191                     	;# 
   714  0192                     	;# 
   715  0196                     	;# 
   716  0197                     	;# 
   717  0198                     	;# 
   718  0199                     	;# 
   719  019A                     	;# 
   720  019B                     	;# 
   721  019C                     	;# 
   722  020C                     	;# 
   723  020C                     	;# 
   724  020D                     	;# 
   725  020E                     	;# 
   726  020F                     	;# 
   727  020F                     	;# 
   728  0210                     	;# 
   729  0210                     	;# 
   730  0211                     	;# 
   731  0211                     	;# 
   732  0212                     	;# 
   733  0212                     	;# 
   734  0213                     	;# 
   735  0214                     	;# 
   736  0215                     	;# 
   737  0215                     	;# 
   738  0216                     	;# 
   739  0216                     	;# 
   740  0217                     	;# 
   741  0217                     	;# 
   742  0218                     	;# 
   743  0218                     	;# 
   744  0219                     	;# 
   745  021A                     	;# 
   746  021B                     	;# 
   747  021B                     	;# 
   748  021C                     	;# 
   749  021C                     	;# 
   750  021D                     	;# 
   751  021D                     	;# 
   752  021E                     	;# 
   753  021F                     	;# 
   754  028C                     	;# 
   755  028C                     	;# 
   756  028D                     	;# 
   757  028D                     	;# 
   758  028E                     	;# 
   759  028F                     	;# 
   760  0290                     	;# 
   761  0290                     	;# 
   762  0291                     	;# 
   763  0292                     	;# 
   764  0292                     	;# 
   765  0293                     	;# 
   766  0293                     	;# 
   767  0294                     	;# 
   768  0295                     	;# 
   769  0296                     	;# 
   770  0296                     	;# 
   771  0297                     	;# 
   772  0298                     	;# 
   773  0298                     	;# 
   774  0299                     	;# 
   775  0299                     	;# 
   776  029A                     	;# 
   777  029B                     	;# 
   778  029C                     	;# 
   779  029C                     	;# 
   780  029D                     	;# 
   781  030C                     	;# 
   782  030C                     	;# 
   783  030D                     	;# 
   784  030E                     	;# 
   785  030F                     	;# 
   786  0310                     	;# 
   787  0310                     	;# 
   788  0311                     	;# 
   789  0312                     	;# 
   790  0313                     	;# 
   791  0314                     	;# 
   792  0314                     	;# 
   793  0315                     	;# 
   794  0316                     	;# 
   795  0317                     	;# 
   796  0318                     	;# 
   797  0318                     	;# 
   798  0319                     	;# 
   799  031A                     	;# 
   800  031B                     	;# 
   801  031C                     	;# 
   802  031C                     	;# 
   803  031D                     	;# 
   804  031E                     	;# 
   805  031F                     	;# 
   806  038C                     	;# 
   807  038D                     	;# 
   808  038E                     	;# 
   809  0390                     	;# 
   810  0391                     	;# 
   811  0392                     	;# 
   812  040C                     	;# 
   813  040D                     	;# 
   814  040E                     	;# 
   815  040F                     	;# 
   816  0410                     	;# 
   817  0411                     	;# 
   818  0416                     	;# 
   819  0416                     	;# 
   820  0417                     	;# 
   821  0418                     	;# 
   822  0418                     	;# 
   823  0419                     	;# 
   824  041A                     	;# 
   825  041A                     	;# 
   826  041B                     	;# 
   827  041C                     	;# 
   828  041C                     	;# 
   829  041D                     	;# 
   830  041E                     	;# 
   831  041F                     	;# 
   832  048C                     	;# 
   833  048C                     	;# 
   834  048D                     	;# 
   835  048E                     	;# 
   836  048F                     	;# 
   837  048F                     	;# 
   838  0490                     	;# 
   839  0491                     	;# 
   840  0492                     	;# 
   841  0492                     	;# 
   842  0493                     	;# 
   843  0494                     	;# 
   844  0495                     	;# 
   845  0495                     	;# 
   846  0496                     	;# 
   847  0497                     	;# 
   848  0498                     	;# 
   849  0499                     	;# 
   850  049A                     	;# 
   851  049B                     	;# 
   852  049C                     	;# 
   853  049D                     	;# 
   854  050C                     	;# 
   855  050C                     	;# 
   856  050D                     	;# 
   857  050E                     	;# 
   858  050F                     	;# 
   859  050F                     	;# 
   860  0510                     	;# 
   861  0511                     	;# 
   862  0512                     	;# 
   863  0512                     	;# 
   864  0513                     	;# 
   865  0514                     	;# 
   866  0515                     	;# 
   867  0515                     	;# 
   868  0516                     	;# 
   869  0517                     	;# 
   870  0518                     	;# 
   871  0519                     	;# 
   872  051A                     	;# 
   873  051B                     	;# 
   874  051C                     	;# 
   875  051D                     	;# 
   876  058C                     	;# 
   877  058C                     	;# 
   878  058D                     	;# 
   879  058E                     	;# 
   880  058F                     	;# 
   881  058F                     	;# 
   882  0590                     	;# 
   883  0591                     	;# 
   884  0592                     	;# 
   885  0593                     	;# 
   886  060C                     	;# 
   887  060D                     	;# 
   888  060E                     	;# 
   889  060F                     	;# 
   890  0610                     	;# 
   891  0611                     	;# 
   892  0612                     	;# 
   893  0613                     	;# 
   894  0614                     	;# 
   895  0616                     	;# 
   896  0617                     	;# 
   897  0618                     	;# 
   898  0619                     	;# 
   899  061A                     	;# 
   900  061B                     	;# 
   901  061C                     	;# 
   902  061D                     	;# 
   903  061E                     	;# 
   904  068C                     	;# 
   905  068D                     	;# 
   906  068E                     	;# 
   907  068F                     	;# 
   908  0690                     	;# 
   909  0691                     	;# 
   910  0692                     	;# 
   911  0693                     	;# 
   912  0694                     	;# 
   913  070C                     	;# 
   914  070D                     	;# 
   915  070E                     	;# 
   916  070F                     	;# 
   917  0710                     	;# 
   918  0711                     	;# 
   919  0712                     	;# 
   920  0713                     	;# 
   921  0714                     	;# 
   922  0716                     	;# 
   923  0717                     	;# 
   924  0718                     	;# 
   925  0719                     	;# 
   926  071A                     	;# 
   927  071B                     	;# 
   928  071C                     	;# 
   929  071D                     	;# 
   930  071E                     	;# 
   931  0796                     	;# 
   932  0797                     	;# 
   933  0798                     	;# 
   934  0799                     	;# 
   935  079A                     	;# 
   936  079B                     	;# 
   937  080C                     	;# 
   938  080D                     	;# 
   939  080E                     	;# 
   940  080F                     	;# 
   941  0810                     	;# 
   942  0811                     	;# 
   943  0812                     	;# 
   944  0813                     	;# 
   945  0814                     	;# 
   946  081A                     	;# 
   947  081B                     	;# 
   948  081C                     	;# 
   949  081D                     	;# 
   950  081E                     	;# 
   951  081F                     	;# 
   952  088C                     	;# 
   953  088D                     	;# 
   954  088E                     	;# 
   955  088F                     	;# 
   956  0890                     	;# 
   957  0891                     	;# 
   958  0892                     	;# 
   959  0893                     	;# 
   960  0895                     	;# 
   961  0896                     	;# 
   962  0897                     	;# 
   963  0898                     	;# 
   964  0899                     	;# 
   965  089A                     	;# 
   966  089B                     	;# 
   967  090C                     	;# 
   968  090E                     	;# 
   969  090F                     	;# 
   970  091F                     	;# 
   971  091F                     	;# 
   972  098F                     	;# 
   973  098F                     	;# 
   974  0990                     	;# 
   975  0991                     	;# 
   976  0992                     	;# 
   977  0993                     	;# 
   978  0994                     	;# 
   979  0995                     	;# 
   980  0996                     	;# 
   981  0997                     	;# 
   982  0E0F                     	;# 
   983  0E10                     	;# 
   984  0E11                     	;# 
   985  0E12                     	;# 
   986  0E13                     	;# 
   987  0E14                     	;# 
   988  0E15                     	;# 
   989  0E16                     	;# 
   990  0E17                     	;# 
   991  0E18                     	;# 
   992  0E19                     	;# 
   993  0E1A                     	;# 
   994  0E1B                     	;# 
   995  0E1C                     	;# 
   996  0E1D                     	;# 
   997  0E1E                     	;# 
   998  0E1F                     	;# 
   999  0E20                     	;# 
  1000  0E21                     	;# 
  1001  0E22                     	;# 
  1002  0E23                     	;# 
  1003  0E24                     	;# 
  1004  0E25                     	;# 
  1005  0E26                     	;# 
  1006  0E27                     	;# 
  1007  0E28                     	;# 
  1008  0E29                     	;# 
  1009  0E2A                     	;# 
  1010  0E2B                     	;# 
  1011  0E2C                     	;# 
  1012  0E2D                     	;# 
  1013  0E2E                     	;# 
  1014  0E2F                     	;# 
  1015  0E30                     	;# 
  1016  0E31                     	;# 
  1017  0E32                     	;# 
  1018  0E33                     	;# 
  1019  0E34                     	;# 
  1020  0E35                     	;# 
  1021  0E36                     	;# 
  1022  0E37                     	;# 
  1023  0E8F                     	;# 
  1024  0E90                     	;# 
  1025  0E91                     	;# 
  1026  0E92                     	;# 
  1027  0E93                     	;# 
  1028  0E94                     	;# 
  1029  0E95                     	;# 
  1030  0E96                     	;# 
  1031  0E97                     	;# 
  1032  0E9C                     	;# 
  1033  0E9D                     	;# 
  1034  0E9E                     	;# 
  1035  0EA1                     	;# 
  1036  0EA2                     	;# 
  1037  0EA3                     	;# 
  1038  0EA4                     	;# 
  1039  0EA5                     	;# 
  1040  0EA9                     	;# 
  1041  0EAA                     	;# 
  1042  0EAB                     	;# 
  1043  0EAC                     	;# 
  1044  0EB1                     	;# 
  1045  0EB2                     	;# 
  1046  0EB3                     	;# 
  1047  0EB8                     	;# 
  1048  0EB9                     	;# 
  1049  0EBA                     	;# 
  1050  0EBB                     	;# 
  1051  0EBC                     	;# 
  1052  0EBD                     	;# 
  1053  0EBE                     	;# 
  1054  0EC3                     	;# 
  1055  0EC5                     	;# 
  1056  0EC6                     	;# 
  1057  0EC7                     	;# 
  1058  0EC8                     	;# 
  1059  0EC9                     	;# 
  1060  0ECA                     	;# 
  1061  0ECB                     	;# 
  1062  0ECC                     	;# 
  1063  0F10                     	;# 
  1064  0F11                     	;# 
  1065  0F12                     	;# 
  1066  0F13                     	;# 
  1067  0F14                     	;# 
  1068  0F15                     	;# 
  1069  0F16                     	;# 
  1070  0F17                     	;# 
  1071  0F18                     	;# 
  1072  0F19                     	;# 
  1073  0F1A                     	;# 
  1074  0F1B                     	;# 
  1075  0F1C                     	;# 
  1076  0F1D                     	;# 
  1077  0F1E                     	;# 
  1078  0F1F                     	;# 
  1079  0F20                     	;# 
  1080  0F21                     	;# 
  1081  0F22                     	;# 
  1082  0F23                     	;# 
  1083  0F24                     	;# 
  1084  0F25                     	;# 
  1085  0F26                     	;# 
  1086  0F27                     	;# 
  1087  0F28                     	;# 
  1088  0F29                     	;# 
  1089  0F2A                     	;# 
  1090  0F2B                     	;# 
  1091  0F2C                     	;# 
  1092  0F2D                     	;# 
  1093  0F2E                     	;# 
  1094  0F2F                     	;# 
  1095  0F30                     	;# 
  1096  0F31                     	;# 
  1097  0F32                     	;# 
  1098  0F38                     	;# 
  1099  0F39                     	;# 
  1100  0F3A                     	;# 
  1101  0F3B                     	;# 
  1102  0F3C                     	;# 
  1103  0F3D                     	;# 
  1104  0F3E                     	;# 
  1105  0F3F                     	;# 
  1106  0F40                     	;# 
  1107  0F41                     	;# 
  1108  0F43                     	;# 
  1109  0F44                     	;# 
  1110  0F45                     	;# 
  1111  0F46                     	;# 
  1112  0F47                     	;# 
  1113  0F48                     	;# 
  1114  0F49                     	;# 
  1115  0F4A                     	;# 
  1116  0F4B                     	;# 
  1117  0F4C                     	;# 
  1118  0F4E                     	;# 
  1119  0F4F                     	;# 
  1120  0F50                     	;# 
  1121  0F51                     	;# 
  1122  0F52                     	;# 
  1123  0F53                     	;# 
  1124  0F54                     	;# 
  1125  0F55                     	;# 
  1126  0F56                     	;# 
  1127  0F57                     	;# 
  1128  0F59                     	;# 
  1129  0F5A                     	;# 
  1130  0F5B                     	;# 
  1131  0F5C                     	;# 
  1132  0F5D                     	;# 
  1133  0F61                     	;# 
  1134  0F62                     	;# 
  1135  0F64                     	;# 
  1136  0F65                     	;# 
  1137  0F66                     	;# 
  1138  0F67                     	;# 
  1139  0F68                     	;# 
  1140  0F69                     	;# 
  1141  0F6A                     	;# 
  1142  0F6B                     	;# 
  1143  0F6C                     	;# 
  1144  0F6D                     	;# 
  1145  0FE4                     	;# 
  1146  0FE5                     	;# 
  1147  0FE6                     	;# 
  1148  0FE7                     	;# 
  1149  0FE8                     	;# 
  1150  0FE9                     	;# 
  1151  0FEA                     	;# 
  1152  0FEB                     	;# 
  1153  0FED                     	;# 
  1154  0FEE                     	;# 
  1155  0FEF                     	;# 
  1156  0000                     	;# 
  1157  0001                     	;# 
  1158  0002                     	;# 
  1159  0003                     	;# 
  1160  0004                     	;# 
  1161  0005                     	;# 
  1162  0006                     	;# 
  1163  0007                     	;# 
  1164  0008                     	;# 
  1165  0009                     	;# 
  1166  000A                     	;# 
  1167  000B                     	;# 
  1168  000C                     	;# 
  1169  000D                     	;# 
  1170  000E                     	;# 
  1171  000F                     	;# 
  1172  0010                     	;# 
  1173  0011                     	;# 
  1174  0012                     	;# 
  1175  0013                     	;# 
  1176  0014                     	;# 
  1177  0015                     	;# 
  1178  0016                     	;# 
  1179  0017                     	;# 
  1180  0018                     	;# 
  1181  0019                     	;# 
  1182  001A                     	;# 
  1183  001C                     	;# 
  1184  001C                     	;# 
  1185  001D                     	;# 
  1186  001D                     	;# 
  1187  001E                     	;# 
  1188  001F                     	;# 
  1189  008C                     	;# 
  1190  008C                     	;# 
  1191  008D                     	;# 
  1192  008E                     	;# 
  1193  008E                     	;# 
  1194  008F                     	;# 
  1195  0090                     	;# 
  1196  0090                     	;# 
  1197  0091                     	;# 
  1198  0093                     	;# 
  1199  0094                     	;# 
  1200  0095                     	;# 
  1201  0096                     	;# 
  1202  0097                     	;# 
  1203  0098                     	;# 
  1204  0099                     	;# 
  1205  009A                     	;# 
  1206  009B                     	;# 
  1207  009C                     	;# 
  1208  009D                     	;# 
  1209  009E                     	;# 
  1210  010C                     	;# 
  1211  010D                     	;# 
  1212  010E                     	;# 
  1213  010E                     	;# 
  1214  010F                     	;# 
  1215  0110                     	;# 
  1216  0110                     	;# 
  1217  0111                     	;# 
  1218  0112                     	;# 
  1219  0112                     	;# 
  1220  0113                     	;# 
  1221  0114                     	;# 
  1222  0114                     	;# 
  1223  0115                     	;# 
  1224  0116                     	;# 
  1225  0116                     	;# 
  1226  0117                     	;# 
  1227  0119                     	;# 
  1228  0119                     	;# 
  1229  0119                     	;# 
  1230  011A                     	;# 
  1231  011A                     	;# 
  1232  011A                     	;# 
  1233  011B                     	;# 
  1234  011B                     	;# 
  1235  011B                     	;# 
  1236  011B                     	;# 
  1237  011B                     	;# 
  1238  011C                     	;# 
  1239  011C                     	;# 
  1240  011C                     	;# 
  1241  011D                     	;# 
  1242  011D                     	;# 
  1243  011D                     	;# 
  1244  011E                     	;# 
  1245  011E                     	;# 
  1246  011E                     	;# 
  1247  011F                     	;# 
  1248  011F                     	;# 
  1249  011F                     	;# 
  1250  011F                     	;# 
  1251  011F                     	;# 
  1252  018C                     	;# 
  1253  018D                     	;# 
  1254  018E                     	;# 
  1255  018F                     	;# 
  1256  0190                     	;# 
  1257  0191                     	;# 
  1258  0192                     	;# 
  1259  0196                     	;# 
  1260  0197                     	;# 
  1261  0198                     	;# 
  1262  0199                     	;# 
  1263  019A                     	;# 
  1264  019B                     	;# 
  1265  019C                     	;# 
  1266  020C                     	;# 
  1267  020C                     	;# 
  1268  020D                     	;# 
  1269  020E                     	;# 
  1270  020F                     	;# 
  1271  020F                     	;# 
  1272  0210                     	;# 
  1273  0210                     	;# 
  1274  0211                     	;# 
  1275  0211                     	;# 
  1276  0212                     	;# 
  1277  0212                     	;# 
  1278  0213                     	;# 
  1279  0214                     	;# 
  1280  0215                     	;# 
  1281  0215                     	;# 
  1282  0216                     	;# 
  1283  0216                     	;# 
  1284  0217                     	;# 
  1285  0217                     	;# 
  1286  0218                     	;# 
  1287  0218                     	;# 
  1288  0219                     	;# 
  1289  021A                     	;# 
  1290  021B                     	;# 
  1291  021B                     	;# 
  1292  021C                     	;# 
  1293  021C                     	;# 
  1294  021D                     	;# 
  1295  021D                     	;# 
  1296  021E                     	;# 
  1297  021F                     	;# 
  1298  028C                     	;# 
  1299  028C                     	;# 
  1300  028D                     	;# 
  1301  028D                     	;# 
  1302  028E                     	;# 
  1303  028F                     	;# 
  1304  0290                     	;# 
  1305  0290                     	;# 
  1306  0291                     	;# 
  1307  0292                     	;# 
  1308  0292                     	;# 
  1309  0293                     	;# 
  1310  0293                     	;# 
  1311  0294                     	;# 
  1312  0295                     	;# 
  1313  0296                     	;# 
  1314  0296                     	;# 
  1315  0297                     	;# 
  1316  0298                     	;# 
  1317  0298                     	;# 
  1318  0299                     	;# 
  1319  0299                     	;# 
  1320  029A                     	;# 
  1321  029B                     	;# 
  1322  029C                     	;# 
  1323  029C                     	;# 
  1324  029D                     	;# 
  1325  030C                     	;# 
  1326  030C                     	;# 
  1327  030D                     	;# 
  1328  030E                     	;# 
  1329  030F                     	;# 
  1330  0310                     	;# 
  1331  0310                     	;# 
  1332  0311                     	;# 
  1333  0312                     	;# 
  1334  0313                     	;# 
  1335  0314                     	;# 
  1336  0314                     	;# 
  1337  0315                     	;# 
  1338  0316                     	;# 
  1339  0317                     	;# 
  1340  0318                     	;# 
  1341  0318                     	;# 
  1342  0319                     	;# 
  1343  031A                     	;# 
  1344  031B                     	;# 
  1345  031C                     	;# 
  1346  031C                     	;# 
  1347  031D                     	;# 
  1348  031E                     	;# 
  1349  031F                     	;# 
  1350  038C                     	;# 
  1351  038D                     	;# 
  1352  038E                     	;# 
  1353  0390                     	;# 
  1354  0391                     	;# 
  1355  0392                     	;# 
  1356  040C                     	;# 
  1357  040D                     	;# 
  1358  040E                     	;# 
  1359  040F                     	;# 
  1360  0410                     	;# 
  1361  0411                     	;# 
  1362  0416                     	;# 
  1363  0416                     	;# 
  1364  0417                     	;# 
  1365  0418                     	;# 
  1366  0418                     	;# 
  1367  0419                     	;# 
  1368  041A                     	;# 
  1369  041A                     	;# 
  1370  041B                     	;# 
  1371  041C                     	;# 
  1372  041C                     	;# 
  1373  041D                     	;# 
  1374  041E                     	;# 
  1375  041F                     	;# 
  1376  048C                     	;# 
  1377  048C                     	;# 
  1378  048D                     	;# 
  1379  048E                     	;# 
  1380  048F                     	;# 
  1381  048F                     	;# 
  1382  0490                     	;# 
  1383  0491                     	;# 
  1384  0492                     	;# 
  1385  0492                     	;# 
  1386  0493                     	;# 
  1387  0494                     	;# 
  1388  0495                     	;# 
  1389  0495                     	;# 
  1390  0496                     	;# 
  1391  0497                     	;# 
  1392  0498                     	;# 
  1393  0499                     	;# 
  1394  049A                     	;# 
  1395  049B                     	;# 
  1396  049C                     	;# 
  1397  049D                     	;# 
  1398  050C                     	;# 
  1399  050C                     	;# 
  1400  050D                     	;# 
  1401  050E                     	;# 
  1402  050F                     	;# 
  1403  050F                     	;# 
  1404  0510                     	;# 
  1405  0511                     	;# 
  1406  0512                     	;# 
  1407  0512                     	;# 
  1408  0513                     	;# 
  1409  0514                     	;# 
  1410  0515                     	;# 
  1411  0515                     	;# 
  1412  0516                     	;# 
  1413  0517                     	;# 
  1414  0518                     	;# 
  1415  0519                     	;# 
  1416  051A                     	;# 
  1417  051B                     	;# 
  1418  051C                     	;# 
  1419  051D                     	;# 
  1420  058C                     	;# 
  1421  058C                     	;# 
  1422  058D                     	;# 
  1423  058E                     	;# 
  1424  058F                     	;# 
  1425  058F                     	;# 
  1426  0590                     	;# 
  1427  0591                     	;# 
  1428  0592                     	;# 
  1429  0593                     	;# 
  1430  060C                     	;# 
  1431  060D                     	;# 
  1432  060E                     	;# 
  1433  060F                     	;# 
  1434  0610                     	;# 
  1435  0611                     	;# 
  1436  0612                     	;# 
  1437  0613                     	;# 
  1438  0614                     	;# 
  1439  0616                     	;# 
  1440  0617                     	;# 
  1441  0618                     	;# 
  1442  0619                     	;# 
  1443  061A                     	;# 
  1444  061B                     	;# 
  1445  061C                     	;# 
  1446  061D                     	;# 
  1447  061E                     	;# 
  1448  068C                     	;# 
  1449  068D                     	;# 
  1450  068E                     	;# 
  1451  068F                     	;# 
  1452  0690                     	;# 
  1453  0691                     	;# 
  1454  0692                     	;# 
  1455  0693                     	;# 
  1456  0694                     	;# 
  1457  070C                     	;# 
  1458  070D                     	;# 
  1459  070E                     	;# 
  1460  070F                     	;# 
  1461  0710                     	;# 
  1462  0711                     	;# 
  1463  0712                     	;# 
  1464  0713                     	;# 
  1465  0714                     	;# 
  1466  0716                     	;# 
  1467  0717                     	;# 
  1468  0718                     	;# 
  1469  0719                     	;# 
  1470  071A                     	;# 
  1471  071B                     	;# 
  1472  071C                     	;# 
  1473  071D                     	;# 
  1474  071E                     	;# 
  1475  0796                     	;# 
  1476  0797                     	;# 
  1477  0798                     	;# 
  1478  0799                     	;# 
  1479  079A                     	;# 
  1480  079B                     	;# 
  1481  080C                     	;# 
  1482  080D                     	;# 
  1483  080E                     	;# 
  1484  080F                     	;# 
  1485  0810                     	;# 
  1486  0811                     	;# 
  1487  0812                     	;# 
  1488  0813                     	;# 
  1489  0814                     	;# 
  1490  081A                     	;# 
  1491  081B                     	;# 
  1492  081C                     	;# 
  1493  081D                     	;# 
  1494  081E                     	;# 
  1495  081F                     	;# 
  1496  088C                     	;# 
  1497  088D                     	;# 
  1498  088E                     	;# 
  1499  088F                     	;# 
  1500  0890                     	;# 
  1501  0891                     	;# 
  1502  0892                     	;# 
  1503  0893                     	;# 
  1504  0895                     	;# 
  1505  0896                     	;# 
  1506  0897                     	;# 
  1507  0898                     	;# 
  1508  0899                     	;# 
  1509  089A                     	;# 
  1510  089B                     	;# 
  1511  090C                     	;# 
  1512  090E                     	;# 
  1513  090F                     	;# 
  1514  091F                     	;# 
  1515  091F                     	;# 
  1516  098F                     	;# 
  1517  098F                     	;# 
  1518  0990                     	;# 
  1519  0991                     	;# 
  1520  0992                     	;# 
  1521  0993                     	;# 
  1522  0994                     	;# 
  1523  0995                     	;# 
  1524  0996                     	;# 
  1525  0997                     	;# 
  1526  0E0F                     	;# 
  1527  0E10                     	;# 
  1528  0E11                     	;# 
  1529  0E12                     	;# 
  1530  0E13                     	;# 
  1531  0E14                     	;# 
  1532  0E15                     	;# 
  1533  0E16                     	;# 
  1534  0E17                     	;# 
  1535  0E18                     	;# 
  1536  0E19                     	;# 
  1537  0E1A                     	;# 
  1538  0E1B                     	;# 
  1539  0E1C                     	;# 
  1540  0E1D                     	;# 
  1541  0E1E                     	;# 
  1542  0E1F                     	;# 
  1543  0E20                     	;# 
  1544  0E21                     	;# 
  1545  0E22                     	;# 
  1546  0E23                     	;# 
  1547  0E24                     	;# 
  1548  0E25                     	;# 
  1549  0E26                     	;# 
  1550  0E27                     	;# 
  1551  0E28                     	;# 
  1552  0E29                     	;# 
  1553  0E2A                     	;# 
  1554  0E2B                     	;# 
  1555  0E2C                     	;# 
  1556  0E2D                     	;# 
  1557  0E2E                     	;# 
  1558  0E2F                     	;# 
  1559  0E30                     	;# 
  1560  0E31                     	;# 
  1561  0E32                     	;# 
  1562  0E33                     	;# 
  1563  0E34                     	;# 
  1564  0E35                     	;# 
  1565  0E36                     	;# 
  1566  0E37                     	;# 
  1567  0E8F                     	;# 
  1568  0E90                     	;# 
  1569  0E91                     	;# 
  1570  0E92                     	;# 
  1571  0E93                     	;# 
  1572  0E94                     	;# 
  1573  0E95                     	;# 
  1574  0E96                     	;# 
  1575  0E97                     	;# 
  1576  0E9C                     	;# 
  1577  0E9D                     	;# 
  1578  0E9E                     	;# 
  1579  0EA1                     	;# 
  1580  0EA2                     	;# 
  1581  0EA3                     	;# 
  1582  0EA4                     	;# 
  1583  0EA5                     	;# 
  1584  0EA9                     	;# 
  1585  0EAA                     	;# 
  1586  0EAB                     	;# 
  1587  0EAC                     	;# 
  1588  0EB1                     	;# 
  1589  0EB2                     	;# 
  1590  0EB3                     	;# 
  1591  0EB8                     	;# 
  1592  0EB9                     	;# 
  1593  0EBA                     	;# 
  1594  0EBB                     	;# 
  1595  0EBC                     	;# 
  1596  0EBD                     	;# 
  1597  0EBE                     	;# 
  1598  0EC3                     	;# 
  1599  0EC5                     	;# 
  1600  0EC6                     	;# 
  1601  0EC7                     	;# 
  1602  0EC8                     	;# 
  1603  0EC9                     	;# 
  1604  0ECA                     	;# 
  1605  0ECB                     	;# 
  1606  0ECC                     	;# 
  1607  0F10                     	;# 
  1608  0F11                     	;# 
  1609  0F12                     	;# 
  1610  0F13                     	;# 
  1611  0F14                     	;# 
  1612  0F15                     	;# 
  1613  0F16                     	;# 
  1614  0F17                     	;# 
  1615  0F18                     	;# 
  1616  0F19                     	;# 
  1617  0F1A                     	;# 
  1618  0F1B                     	;# 
  1619  0F1C                     	;# 
  1620  0F1D                     	;# 
  1621  0F1E                     	;# 
  1622  0F1F                     	;# 
  1623  0F20                     	;# 
  1624  0F21                     	;# 
  1625  0F22                     	;# 
  1626  0F23                     	;# 
  1627  0F24                     	;# 
  1628  0F25                     	;# 
  1629  0F26                     	;# 
  1630  0F27                     	;# 
  1631  0F28                     	;# 
  1632  0F29                     	;# 
  1633  0F2A                     	;# 
  1634  0F2B                     	;# 
  1635  0F2C                     	;# 
  1636  0F2D                     	;# 
  1637  0F2E                     	;# 
  1638  0F2F                     	;# 
  1639  0F30                     	;# 
  1640  0F31                     	;# 
  1641  0F32                     	;# 
  1642  0F38                     	;# 
  1643  0F39                     	;# 
  1644  0F3A                     	;# 
  1645  0F3B                     	;# 
  1646  0F3C                     	;# 
  1647  0F3D                     	;# 
  1648  0F3E                     	;# 
  1649  0F3F                     	;# 
  1650  0F40                     	;# 
  1651  0F41                     	;# 
  1652  0F43                     	;# 
  1653  0F44                     	;# 
  1654  0F45                     	;# 
  1655  0F46                     	;# 
  1656  0F47                     	;# 
  1657  0F48                     	;# 
  1658  0F49                     	;# 
  1659  0F4A                     	;# 
  1660  0F4B                     	;# 
  1661  0F4C                     	;# 
  1662  0F4E                     	;# 
  1663  0F4F                     	;# 
  1664  0F50                     	;# 
  1665  0F51                     	;# 
  1666  0F52                     	;# 
  1667  0F53                     	;# 
  1668  0F54                     	;# 
  1669  0F55                     	;# 
  1670  0F56                     	;# 
  1671  0F57                     	;# 
  1672  0F59                     	;# 
  1673  0F5A                     	;# 
  1674  0F5B                     	;# 
  1675  0F5C                     	;# 
  1676  0F5D                     	;# 
  1677  0F61                     	;# 
  1678  0F62                     	;# 
  1679  0F64                     	;# 
  1680  0F65                     	;# 
  1681  0F66                     	;# 
  1682  0F67                     	;# 
  1683  0F68                     	;# 
  1684  0F69                     	;# 
  1685  0F6A                     	;# 
  1686  0F6B                     	;# 
  1687  0F6C                     	;# 
  1688  0F6D                     	;# 
  1689  0FE4                     	;# 
  1690  0FE5                     	;# 
  1691  0FE6                     	;# 
  1692  0FE7                     	;# 
  1693  0FE8                     	;# 
  1694  0FE9                     	;# 
  1695  0FEA                     	;# 
  1696  0FEB                     	;# 
  1697  0FED                     	;# 
  1698  0FEE                     	;# 
  1699  0FEF                     	;# 
  1700  0000                     	;# 
  1701  0001                     	;# 
  1702  0002                     	;# 
  1703  0003                     	;# 
  1704  0004                     	;# 
  1705  0005                     	;# 
  1706  0006                     	;# 
  1707  0007                     	;# 
  1708  0008                     	;# 
  1709  0009                     	;# 
  1710  000A                     	;# 
  1711  000B                     	;# 
  1712  000C                     	;# 
  1713  000D                     	;# 
  1714  000E                     	;# 
  1715  000F                     	;# 
  1716  0010                     	;# 
  1717  0011                     	;# 
  1718  0012                     	;# 
  1719  0013                     	;# 
  1720  0014                     	;# 
  1721  0015                     	;# 
  1722  0016                     	;# 
  1723  0017                     	;# 
  1724  0018                     	;# 
  1725  0019                     	;# 
  1726  001A                     	;# 
  1727  001C                     	;# 
  1728  001C                     	;# 
  1729  001D                     	;# 
  1730  001D                     	;# 
  1731  001E                     	;# 
  1732  001F                     	;# 
  1733  008C                     	;# 
  1734  008C                     	;# 
  1735  008D                     	;# 
  1736  008E                     	;# 
  1737  008E                     	;# 
  1738  008F                     	;# 
  1739  0090                     	;# 
  1740  0090                     	;# 
  1741  0091                     	;# 
  1742  0093                     	;# 
  1743  0094                     	;# 
  1744  0095                     	;# 
  1745  0096                     	;# 
  1746  0097                     	;# 
  1747  0098                     	;# 
  1748  0099                     	;# 
  1749  009A                     	;# 
  1750  009B                     	;# 
  1751  009C                     	;# 
  1752  009D                     	;# 
  1753  009E                     	;# 
  1754  010C                     	;# 
  1755  010D                     	;# 
  1756  010E                     	;# 
  1757  010E                     	;# 
  1758  010F                     	;# 
  1759  0110                     	;# 
  1760  0110                     	;# 
  1761  0111                     	;# 
  1762  0112                     	;# 
  1763  0112                     	;# 
  1764  0113                     	;# 
  1765  0114                     	;# 
  1766  0114                     	;# 
  1767  0115                     	;# 
  1768  0116                     	;# 
  1769  0116                     	;# 
  1770  0117                     	;# 
  1771  0119                     	;# 
  1772  0119                     	;# 
  1773  0119                     	;# 
  1774  011A                     	;# 
  1775  011A                     	;# 
  1776  011A                     	;# 
  1777  011B                     	;# 
  1778  011B                     	;# 
  1779  011B                     	;# 
  1780  011B                     	;# 
  1781  011B                     	;# 
  1782  011C                     	;# 
  1783  011C                     	;# 
  1784  011C                     	;# 
  1785  011D                     	;# 
  1786  011D                     	;# 
  1787  011D                     	;# 
  1788  011E                     	;# 
  1789  011E                     	;# 
  1790  011E                     	;# 
  1791  011F                     	;# 
  1792  011F                     	;# 
  1793  011F                     	;# 
  1794  011F                     	;# 
  1795  011F                     	;# 
  1796  018C                     	;# 
  1797  018D                     	;# 
  1798  018E                     	;# 
  1799  018F                     	;# 
  1800  0190                     	;# 
  1801  0191                     	;# 
  1802  0192                     	;# 
  1803  0196                     	;# 
  1804  0197                     	;# 
  1805  0198                     	;# 
  1806  0199                     	;# 
  1807  019A                     	;# 
  1808  019B                     	;# 
  1809  019C                     	;# 
  1810  020C                     	;# 
  1811  020C                     	;# 
  1812  020D                     	;# 
  1813  020E                     	;# 
  1814  020F                     	;# 
  1815  020F                     	;# 
  1816  0210                     	;# 
  1817  0210                     	;# 
  1818  0211                     	;# 
  1819  0211                     	;# 
  1820  0212                     	;# 
  1821  0212                     	;# 
  1822  0213                     	;# 
  1823  0214                     	;# 
  1824  0215                     	;# 
  1825  0215                     	;# 
  1826  0216                     	;# 
  1827  0216                     	;# 
  1828  0217                     	;# 
  1829  0217                     	;# 
  1830  0218                     	;# 
  1831  0218                     	;# 
  1832  0219                     	;# 
  1833  021A                     	;# 
  1834  021B                     	;# 
  1835  021B                     	;# 
  1836  021C                     	;# 
  1837  021C                     	;# 
  1838  021D                     	;# 
  1839  021D                     	;# 
  1840  021E                     	;# 
  1841  021F                     	;# 
  1842  028C                     	;# 
  1843  028C                     	;# 
  1844  028D                     	;# 
  1845  028D                     	;# 
  1846  028E                     	;# 
  1847  028F                     	;# 
  1848  0290                     	;# 
  1849  0290                     	;# 
  1850  0291                     	;# 
  1851  0292                     	;# 
  1852  0292                     	;# 
  1853  0293                     	;# 
  1854  0293                     	;# 
  1855  0294                     	;# 
  1856  0295                     	;# 
  1857  0296                     	;# 
  1858  0296                     	;# 
  1859  0297                     	;# 
  1860  0298                     	;# 
  1861  0298                     	;# 
  1862  0299                     	;# 
  1863  0299                     	;# 
  1864  029A                     	;# 
  1865  029B                     	;# 
  1866  029C                     	;# 
  1867  029C                     	;# 
  1868  029D                     	;# 
  1869  030C                     	;# 
  1870  030C                     	;# 
  1871  030D                     	;# 
  1872  030E                     	;# 
  1873  030F                     	;# 
  1874  0310                     	;# 
  1875  0310                     	;# 
  1876  0311                     	;# 
  1877  0312                     	;# 
  1878  0313                     	;# 
  1879  0314                     	;# 
  1880  0314                     	;# 
  1881  0315                     	;# 
  1882  0316                     	;# 
  1883  0317                     	;# 
  1884  0318                     	;# 
  1885  0318                     	;# 
  1886  0319                     	;# 
  1887  031A                     	;# 
  1888  031B                     	;# 
  1889  031C                     	;# 
  1890  031C                     	;# 
  1891  031D                     	;# 
  1892  031E                     	;# 
  1893  031F                     	;# 
  1894  038C                     	;# 
  1895  038D                     	;# 
  1896  038E                     	;# 
  1897  0390                     	;# 
  1898  0391                     	;# 
  1899  0392                     	;# 
  1900  040C                     	;# 
  1901  040D                     	;# 
  1902  040E                     	;# 
  1903  040F                     	;# 
  1904  0410                     	;# 
  1905  0411                     	;# 
  1906  0416                     	;# 
  1907  0416                     	;# 
  1908  0417                     	;# 
  1909  0418                     	;# 
  1910  0418                     	;# 
  1911  0419                     	;# 
  1912  041A                     	;# 
  1913  041A                     	;# 
  1914  041B                     	;# 
  1915  041C                     	;# 
  1916  041C                     	;# 
  1917  041D                     	;# 
  1918  041E                     	;# 
  1919  041F                     	;# 
  1920  048C                     	;# 
  1921  048C                     	;# 
  1922  048D                     	;# 
  1923  048E                     	;# 
  1924  048F                     	;# 
  1925  048F                     	;# 
  1926  0490                     	;# 
  1927  0491                     	;# 
  1928  0492                     	;# 
  1929  0492                     	;# 
  1930  0493                     	;# 
  1931  0494                     	;# 
  1932  0495                     	;# 
  1933  0495                     	;# 
  1934  0496                     	;# 
  1935  0497                     	;# 
  1936  0498                     	;# 
  1937  0499                     	;# 
  1938  049A                     	;# 
  1939  049B                     	;# 
  1940  049C                     	;# 
  1941  049D                     	;# 
  1942  050C                     	;# 
  1943  050C                     	;# 
  1944  050D                     	;# 
  1945  050E                     	;# 
  1946  050F                     	;# 
  1947  050F                     	;# 
  1948  0510                     	;# 
  1949  0511                     	;# 
  1950  0512                     	;# 
  1951  0512                     	;# 
  1952  0513                     	;# 
  1953  0514                     	;# 
  1954  0515                     	;# 
  1955  0515                     	;# 
  1956  0516                     	;# 
  1957  0517                     	;# 
  1958  0518                     	;# 
  1959  0519                     	;# 
  1960  051A                     	;# 
  1961  051B                     	;# 
  1962  051C                     	;# 
  1963  051D                     	;# 
  1964  058C                     	;# 
  1965  058C                     	;# 
  1966  058D                     	;# 
  1967  058E                     	;# 
  1968  058F                     	;# 
  1969  058F                     	;# 
  1970  0590                     	;# 
  1971  0591                     	;# 
  1972  0592                     	;# 
  1973  0593                     	;# 
  1974  060C                     	;# 
  1975  060D                     	;# 
  1976  060E                     	;# 
  1977  060F                     	;# 
  1978  0610                     	;# 
  1979  0611                     	;# 
  1980  0612                     	;# 
  1981  0613                     	;# 
  1982  0614                     	;# 
  1983  0616                     	;# 
  1984  0617                     	;# 
  1985  0618                     	;# 
  1986  0619                     	;# 
  1987  061A                     	;# 
  1988  061B                     	;# 
  1989  061C                     	;# 
  1990  061D                     	;# 
  1991  061E                     	;# 
  1992  068C                     	;# 
  1993  068D                     	;# 
  1994  068E                     	;# 
  1995  068F                     	;# 
  1996  0690                     	;# 
  1997  0691                     	;# 
  1998  0692                     	;# 
  1999  0693                     	;# 
  2000  0694                     	;# 
  2001  070C                     	;# 
  2002  070D                     	;# 
  2003  070E                     	;# 
  2004  070F                     	;# 
  2005  0710                     	;# 
  2006  0711                     	;# 
  2007  0712                     	;# 
  2008  0713                     	;# 
  2009  0714                     	;# 
  2010  0716                     	;# 
  2011  0717                     	;# 
  2012  0718                     	;# 
  2013  0719                     	;# 
  2014  071A                     	;# 
  2015  071B                     	;# 
  2016  071C                     	;# 
  2017  071D                     	;# 
  2018  071E                     	;# 
  2019  0796                     	;# 
  2020  0797                     	;# 
  2021  0798                     	;# 
  2022  0799                     	;# 
  2023  079A                     	;# 
  2024  079B                     	;# 
  2025  080C                     	;# 
  2026  080D                     	;# 
  2027  080E                     	;# 
  2028  080F                     	;# 
  2029  0810                     	;# 
  2030  0811                     	;# 
  2031  0812                     	;# 
  2032  0813                     	;# 
  2033  0814                     	;# 
  2034  081A                     	;# 
  2035  081B                     	;# 
  2036  081C                     	;# 
  2037  081D                     	;# 
  2038  081E                     	;# 
  2039  081F                     	;# 
  2040  088C                     	;# 
  2041  088D                     	;# 
  2042  088E                     	;# 
  2043  088F                     	;# 
  2044  0890                     	;# 
  2045  0891                     	;# 
  2046  0892                     	;# 
  2047  0893                     	;# 
  2048  0895                     	;# 
  2049  0896                     	;# 
  2050  0897                     	;# 
  2051  0898                     	;# 
  2052  0899                     	;# 
  2053  089A                     	;# 
  2054  089B                     	;# 
  2055  090C                     	;# 
  2056  090E                     	;# 
  2057  090F                     	;# 
  2058  091F                     	;# 
  2059  091F                     	;# 
  2060  098F                     	;# 
  2061  098F                     	;# 
  2062  0990                     	;# 
  2063  0991                     	;# 
  2064  0992                     	;# 
  2065  0993                     	;# 
  2066  0994                     	;# 
  2067  0995                     	;# 
  2068  0996                     	;# 
  2069  0997                     	;# 
  2070  0E0F                     	;# 
  2071  0E10                     	;# 
  2072  0E11                     	;# 
  2073  0E12                     	;# 
  2074  0E13                     	;# 
  2075  0E14                     	;# 
  2076  0E15                     	;# 
  2077  0E16                     	;# 
  2078  0E17                     	;# 
  2079  0E18                     	;# 
  2080  0E19                     	;# 
  2081  0E1A                     	;# 
  2082  0E1B                     	;# 
  2083  0E1C                     	;# 
  2084  0E1D                     	;# 
  2085  0E1E                     	;# 
  2086  0E1F                     	;# 
  2087  0E20                     	;# 
  2088  0E21                     	;# 
  2089  0E22                     	;# 
  2090  0E23                     	;# 
  2091  0E24                     	;# 
  2092  0E25                     	;# 
  2093  0E26                     	;# 
  2094  0E27                     	;# 
  2095  0E28                     	;# 
  2096  0E29                     	;# 
  2097  0E2A                     	;# 
  2098  0E2B                     	;# 
  2099  0E2C                     	;# 
  2100  0E2D                     	;# 
  2101  0E2E                     	;# 
  2102  0E2F                     	;# 
  2103  0E30                     	;# 
  2104  0E31                     	;# 
  2105  0E32                     	;# 
  2106  0E33                     	;# 
  2107  0E34                     	;# 
  2108  0E35                     	;# 
  2109  0E36                     	;# 
  2110  0E37                     	;# 
  2111  0E8F                     	;# 
  2112  0E90                     	;# 
  2113  0E91                     	;# 
  2114  0E92                     	;# 
  2115  0E93                     	;# 
  2116  0E94                     	;# 
  2117  0E95                     	;# 
  2118  0E96                     	;# 
  2119  0E97                     	;# 
  2120  0E9C                     	;# 
  2121  0E9D                     	;# 
  2122  0E9E                     	;# 
  2123  0EA1                     	;# 
  2124  0EA2                     	;# 
  2125  0EA3                     	;# 
  2126  0EA4                     	;# 
  2127  0EA5                     	;# 
  2128  0EA9                     	;# 
  2129  0EAA                     	;# 
  2130  0EAB                     	;# 
  2131  0EAC                     	;# 
  2132  0EB1                     	;# 
  2133  0EB2                     	;# 
  2134  0EB3                     	;# 
  2135  0EB8                     	;# 
  2136  0EB9                     	;# 
  2137  0EBA                     	;# 
  2138  0EBB                     	;# 
  2139  0EBC                     	;# 
  2140  0EBD                     	;# 
  2141  0EBE                     	;# 
  2142  0EC3                     	;# 
  2143  0EC5                     	;# 
  2144  0EC6                     	;# 
  2145  0EC7                     	;# 
  2146  0EC8                     	;# 
  2147  0EC9                     	;# 
  2148  0ECA                     	;# 
  2149  0ECB                     	;# 
  2150  0ECC                     	;# 
  2151  0F10                     	;# 
  2152  0F11                     	;# 
  2153  0F12                     	;# 
  2154  0F13                     	;# 
  2155  0F14                     	;# 
  2156  0F15                     	;# 
  2157  0F16                     	;# 
  2158  0F17                     	;# 
  2159  0F18                     	;# 
  2160  0F19                     	;# 
  2161  0F1A                     	;# 
  2162  0F1B                     	;# 
  2163  0F1C                     	;# 
  2164  0F1D                     	;# 
  2165  0F1E                     	;# 
  2166  0F1F                     	;# 
  2167  0F20                     	;# 
  2168  0F21                     	;# 
  2169  0F22                     	;# 
  2170  0F23                     	;# 
  2171  0F24                     	;# 
  2172  0F25                     	;# 
  2173  0F26                     	;# 
  2174  0F27                     	;# 
  2175  0F28                     	;# 
  2176  0F29                     	;# 
  2177  0F2A                     	;# 
  2178  0F2B                     	;# 
  2179  0F2C                     	;# 
  2180  0F2D                     	;# 
  2181  0F2E                     	;# 
  2182  0F2F                     	;# 
  2183  0F30                     	;# 
  2184  0F31                     	;# 
  2185  0F32                     	;# 
  2186  0F38                     	;# 
  2187  0F39                     	;# 
  2188  0F3A                     	;# 
  2189  0F3B                     	;# 
  2190  0F3C                     	;# 
  2191  0F3D                     	;# 
  2192  0F3E                     	;# 
  2193  0F3F                     	;# 
  2194  0F40                     	;# 
  2195  0F41                     	;# 
  2196  0F43                     	;# 
  2197  0F44                     	;# 
  2198  0F45                     	;# 
  2199  0F46                     	;# 
  2200  0F47                     	;# 
  2201  0F48                     	;# 
  2202  0F49                     	;# 
  2203  0F4A                     	;# 
  2204  0F4B                     	;# 
  2205  0F4C                     	;# 
  2206  0F4E                     	;# 
  2207  0F4F                     	;# 
  2208  0F50                     	;# 
  2209  0F51                     	;# 
  2210  0F52                     	;# 
  2211  0F53                     	;# 
  2212  0F54                     	;# 
  2213  0F55                     	;# 
  2214  0F56                     	;# 
  2215  0F57                     	;# 
  2216  0F59                     	;# 
  2217  0F5A                     	;# 
  2218  0F5B                     	;# 
  2219  0F5C                     	;# 
  2220  0F5D                     	;# 
  2221  0F61                     	;# 
  2222  0F62                     	;# 
  2223  0F64                     	;# 
  2224  0F65                     	;# 
  2225  0F66                     	;# 
  2226  0F67                     	;# 
  2227  0F68                     	;# 
  2228  0F69                     	;# 
  2229  0F6A                     	;# 
  2230  0F6B                     	;# 
  2231  0F6C                     	;# 
  2232  0F6D                     	;# 
  2233  0FE4                     	;# 
  2234  0FE5                     	;# 
  2235  0FE6                     	;# 
  2236  0FE7                     	;# 
  2237  0FE8                     	;# 
  2238  0FE9                     	;# 
  2239  0FEA                     	;# 
  2240  0FEB                     	;# 
  2241  0FED                     	;# 
  2242  0FEE                     	;# 
  2243  0FEF                     	;# 
  2244  0000                     	;# 
  2245  0001                     	;# 
  2246  0002                     	;# 
  2247  0003                     	;# 
  2248  0004                     	;# 
  2249  0005                     	;# 
  2250  0006                     	;# 
  2251  0007                     	;# 
  2252  0008                     	;# 
  2253  0009                     	;# 
  2254  000A                     	;# 
  2255  000B                     	;# 
  2256  000C                     	;# 
  2257  000D                     	;# 
  2258  000E                     	;# 
  2259  000F                     	;# 
  2260  0010                     	;# 
  2261  0011                     	;# 
  2262  0012                     	;# 
  2263  0013                     	;# 
  2264  0014                     	;# 
  2265  0015                     	;# 
  2266  0016                     	;# 
  2267  0017                     	;# 
  2268  0018                     	;# 
  2269  0019                     	;# 
  2270  001A                     	;# 
  2271  001C                     	;# 
  2272  001C                     	;# 
  2273  001D                     	;# 
  2274  001D                     	;# 
  2275  001E                     	;# 
  2276  001F                     	;# 
  2277  008C                     	;# 
  2278  008C                     	;# 
  2279  008D                     	;# 
  2280  008E                     	;# 
  2281  008E                     	;# 
  2282  008F                     	;# 
  2283  0090                     	;# 
  2284  0090                     	;# 
  2285  0091                     	;# 
  2286  0093                     	;# 
  2287  0094                     	;# 
  2288  0095                     	;# 
  2289  0096                     	;# 
  2290  0097                     	;# 
  2291  0098                     	;# 
  2292  0099                     	;# 
  2293  009A                     	;# 
  2294  009B                     	;# 
  2295  009C                     	;# 
  2296  009D                     	;# 
  2297  009E                     	;# 
  2298  010C                     	;# 
  2299  010D                     	;# 
  2300  010E                     	;# 
  2301  010E                     	;# 
  2302  010F                     	;# 
  2303  0110                     	;# 
  2304  0110                     	;# 
  2305  0111                     	;# 
  2306  0112                     	;# 
  2307  0112                     	;# 
  2308  0113                     	;# 
  2309  0114                     	;# 
  2310  0114                     	;# 
  2311  0115                     	;# 
  2312  0116                     	;# 
  2313  0116                     	;# 
  2314  0117                     	;# 
  2315  0119                     	;# 
  2316  0119                     	;# 
  2317  0119                     	;# 
  2318  011A                     	;# 
  2319  011A                     	;# 
  2320  011A                     	;# 
  2321  011B                     	;# 
  2322  011B                     	;# 
  2323  011B                     	;# 
  2324  011B                     	;# 
  2325  011B                     	;# 
  2326  011C                     	;# 
  2327  011C                     	;# 
  2328  011C                     	;# 
  2329  011D                     	;# 
  2330  011D                     	;# 
  2331  011D                     	;# 
  2332  011E                     	;# 
  2333  011E                     	;# 
  2334  011E                     	;# 
  2335  011F                     	;# 
  2336  011F                     	;# 
  2337  011F                     	;# 
  2338  011F                     	;# 
  2339  011F                     	;# 
  2340  018C                     	;# 
  2341  018D                     	;# 
  2342  018E                     	;# 
  2343  018F                     	;# 
  2344  0190                     	;# 
  2345  0191                     	;# 
  2346  0192                     	;# 
  2347  0196                     	;# 
  2348  0197                     	;# 
  2349  0198                     	;# 
  2350  0199                     	;# 
  2351  019A                     	;# 
  2352  019B                     	;# 
  2353  019C                     	;# 
  2354  020C                     	;# 
  2355  020C                     	;# 
  2356  020D                     	;# 
  2357  020E                     	;# 
  2358  020F                     	;# 
  2359  020F                     	;# 
  2360  0210                     	;# 
  2361  0210                     	;# 
  2362  0211                     	;# 
  2363  0211                     	;# 
  2364  0212                     	;# 
  2365  0212                     	;# 
  2366  0213                     	;# 
  2367  0214                     	;# 
  2368  0215                     	;# 
  2369  0215                     	;# 
  2370  0216                     	;# 
  2371  0216                     	;# 
  2372  0217                     	;# 
  2373  0217                     	;# 
  2374  0218                     	;# 
  2375  0218                     	;# 
  2376  0219                     	;# 
  2377  021A                     	;# 
  2378  021B                     	;# 
  2379  021B                     	;# 
  2380  021C                     	;# 
  2381  021C                     	;# 
  2382  021D                     	;# 
  2383  021D                     	;# 
  2384  021E                     	;# 
  2385  021F                     	;# 
  2386  028C                     	;# 
  2387  028C                     	;# 
  2388  028D                     	;# 
  2389  028D                     	;# 
  2390  028E                     	;# 
  2391  028F                     	;# 
  2392  0290                     	;# 
  2393  0290                     	;# 
  2394  0291                     	;# 
  2395  0292                     	;# 
  2396  0292                     	;# 
  2397  0293                     	;# 
  2398  0293                     	;# 
  2399  0294                     	;# 
  2400  0295                     	;# 
  2401  0296                     	;# 
  2402  0296                     	;# 
  2403  0297                     	;# 
  2404  0298                     	;# 
  2405  0298                     	;# 
  2406  0299                     	;# 
  2407  0299                     	;# 
  2408  029A                     	;# 
  2409  029B                     	;# 
  2410  029C                     	;# 
  2411  029C                     	;# 
  2412  029D                     	;# 
  2413  030C                     	;# 
  2414  030C                     	;# 
  2415  030D                     	;# 
  2416  030E                     	;# 
  2417  030F                     	;# 
  2418  0310                     	;# 
  2419  0310                     	;# 
  2420  0311                     	;# 
  2421  0312                     	;# 
  2422  0313                     	;# 
  2423  0314                     	;# 
  2424  0314                     	;# 
  2425  0315                     	;# 
  2426  0316                     	;# 
  2427  0317                     	;# 
  2428  0318                     	;# 
  2429  0318                     	;# 
  2430  0319                     	;# 
  2431  031A                     	;# 
  2432  031B                     	;# 
  2433  031C                     	;# 
  2434  031C                     	;# 
  2435  031D                     	;# 
  2436  031E                     	;# 
  2437  031F                     	;# 
  2438  038C                     	;# 
  2439  038D                     	;# 
  2440  038E                     	;# 
  2441  0390                     	;# 
  2442  0391                     	;# 
  2443  0392                     	;# 
  2444  040C                     	;# 
  2445  040D                     	;# 
  2446  040E                     	;# 
  2447  040F                     	;# 
  2448  0410                     	;# 
  2449  0411                     	;# 
  2450  0416                     	;# 
  2451  0416                     	;# 
  2452  0417                     	;# 
  2453  0418                     	;# 
  2454  0418                     	;# 
  2455  0419                     	;# 
  2456  041A                     	;# 
  2457  041A                     	;# 
  2458  041B                     	;# 
  2459  041C                     	;# 
  2460  041C                     	;# 
  2461  041D                     	;# 
  2462  041E                     	;# 
  2463  041F                     	;# 
  2464  048C                     	;# 
  2465  048C                     	;# 
  2466  048D                     	;# 
  2467  048E                     	;# 
  2468  048F                     	;# 
  2469  048F                     	;# 
  2470  0490                     	;# 
  2471  0491                     	;# 
  2472  0492                     	;# 
  2473  0492                     	;# 
  2474  0493                     	;# 
  2475  0494                     	;# 
  2476  0495                     	;# 
  2477  0495                     	;# 
  2478  0496                     	;# 
  2479  0497                     	;# 
  2480  0498                     	;# 
  2481  0499                     	;# 
  2482  049A                     	;# 
  2483  049B                     	;# 
  2484  049C                     	;# 
  2485  049D                     	;# 
  2486  050C                     	;# 
  2487  050C                     	;# 
  2488  050D                     	;# 
  2489  050E                     	;# 
  2490  050F                     	;# 
  2491  050F                     	;# 
  2492  0510                     	;# 
  2493  0511                     	;# 
  2494  0512                     	;# 
  2495  0512                     	;# 
  2496  0513                     	;# 
  2497  0514                     	;# 
  2498  0515                     	;# 
  2499  0515                     	;# 
  2500  0516                     	;# 
  2501  0517                     	;# 
  2502  0518                     	;# 
  2503  0519                     	;# 
  2504  051A                     	;# 
  2505  051B                     	;# 
  2506  051C                     	;# 
  2507  051D                     	;# 
  2508  058C                     	;# 
  2509  058C                     	;# 
  2510  058D                     	;# 
  2511  058E                     	;# 
  2512  058F                     	;# 
  2513  058F                     	;# 
  2514  0590                     	;# 
  2515  0591                     	;# 
  2516  0592                     	;# 
  2517  0593                     	;# 
  2518  060C                     	;# 
  2519  060D                     	;# 
  2520  060E                     	;# 
  2521  060F                     	;# 
  2522  0610                     	;# 
  2523  0611                     	;# 
  2524  0612                     	;# 
  2525  0613                     	;# 
  2526  0614                     	;# 
  2527  0616                     	;# 
  2528  0617                     	;# 
  2529  0618                     	;# 
  2530  0619                     	;# 
  2531  061A                     	;# 
  2532  061B                     	;# 
  2533  061C                     	;# 
  2534  061D                     	;# 
  2535  061E                     	;# 
  2536  068C                     	;# 
  2537  068D                     	;# 
  2538  068E                     	;# 
  2539  068F                     	;# 
  2540  0690                     	;# 
  2541  0691                     	;# 
  2542  0692                     	;# 
  2543  0693                     	;# 
  2544  0694                     	;# 
  2545  070C                     	;# 
  2546  070D                     	;# 
  2547  070E                     	;# 
  2548  070F                     	;# 
  2549  0710                     	;# 
  2550  0711                     	;# 
  2551  0712                     	;# 
  2552  0713                     	;# 
  2553  0714                     	;# 
  2554  0716                     	;# 
  2555  0717                     	;# 
  2556  0718                     	;# 
  2557  0719                     	;# 
  2558  071A                     	;# 
  2559  071B                     	;# 
  2560  071C                     	;# 
  2561  071D                     	;# 
  2562  071E                     	;# 
  2563  0796                     	;# 
  2564  0797                     	;# 
  2565  0798                     	;# 
  2566  0799                     	;# 
  2567  079A                     	;# 
  2568  079B                     	;# 
  2569  080C                     	;# 
  2570  080D                     	;# 
  2571  080E                     	;# 
  2572  080F                     	;# 
  2573  0810                     	;# 
  2574  0811                     	;# 
  2575  0812                     	;# 
  2576  0813                     	;# 
  2577  0814                     	;# 
  2578  081A                     	;# 
  2579  081B                     	;# 
  2580  081C                     	;# 
  2581  081D                     	;# 
  2582  081E                     	;# 
  2583  081F                     	;# 
  2584  088C                     	;# 
  2585  088D                     	;# 
  2586  088E                     	;# 
  2587  088F                     	;# 
  2588  0890                     	;# 
  2589  0891                     	;# 
  2590  0892                     	;# 
  2591  0893                     	;# 
  2592  0895                     	;# 
  2593  0896                     	;# 
  2594  0897                     	;# 
  2595  0898                     	;# 
  2596  0899                     	;# 
  2597  089A                     	;# 
  2598  089B                     	;# 
  2599  090C                     	;# 
  2600  090E                     	;# 
  2601  090F                     	;# 
  2602  091F                     	;# 
  2603  091F                     	;# 
  2604  098F                     	;# 
  2605  098F                     	;# 
  2606  0990                     	;# 
  2607  0991                     	;# 
  2608  0992                     	;# 
  2609  0993                     	;# 
  2610  0994                     	;# 
  2611  0995                     	;# 
  2612  0996                     	;# 
  2613  0997                     	;# 
  2614  0E0F                     	;# 
  2615  0E10                     	;# 
  2616  0E11                     	;# 
  2617  0E12                     	;# 
  2618  0E13                     	;# 
  2619  0E14                     	;# 
  2620  0E15                     	;# 
  2621  0E16                     	;# 
  2622  0E17                     	;# 
  2623  0E18                     	;# 
  2624  0E19                     	;# 
  2625  0E1A                     	;# 
  2626  0E1B                     	;# 
  2627  0E1C                     	;# 
  2628  0E1D                     	;# 
  2629  0E1E                     	;# 
  2630  0E1F                     	;# 
  2631  0E20                     	;# 
  2632  0E21                     	;# 
  2633  0E22                     	;# 
  2634  0E23                     	;# 
  2635  0E24                     	;# 
  2636  0E25                     	;# 
  2637  0E26                     	;# 
  2638  0E27                     	;# 
  2639  0E28                     	;# 
  2640  0E29                     	;# 
  2641  0E2A                     	;# 
  2642  0E2B                     	;# 
  2643  0E2C                     	;# 
  2644  0E2D                     	;# 
  2645  0E2E                     	;# 
  2646  0E2F                     	;# 
  2647  0E30                     	;# 
  2648  0E31                     	;# 
  2649  0E32                     	;# 
  2650  0E33                     	;# 
  2651  0E34                     	;# 
  2652  0E35                     	;# 
  2653  0E36                     	;# 
  2654  0E37                     	;# 
  2655  0E8F                     	;# 
  2656  0E90                     	;# 
  2657  0E91                     	;# 
  2658  0E92                     	;# 
  2659  0E93                     	;# 
  2660  0E94                     	;# 
  2661  0E95                     	;# 
  2662  0E96                     	;# 
  2663  0E97                     	;# 
  2664  0E9C                     	;# 
  2665  0E9D                     	;# 
  2666  0E9E                     	;# 
  2667  0EA1                     	;# 
  2668  0EA2                     	;# 
  2669  0EA3                     	;# 
  2670  0EA4                     	;# 
  2671  0EA5                     	;# 
  2672  0EA9                     	;# 
  2673  0EAA                     	;# 
  2674  0EAB                     	;# 
  2675  0EAC                     	;# 
  2676  0EB1                     	;# 
  2677  0EB2                     	;# 
  2678  0EB3                     	;# 
  2679  0EB8                     	;# 
  2680  0EB9                     	;# 
  2681  0EBA                     	;# 
  2682  0EBB                     	;# 
  2683  0EBC                     	;# 
  2684  0EBD                     	;# 
  2685  0EBE                     	;# 
  2686  0EC3                     	;# 
  2687  0EC5                     	;# 
  2688  0EC6                     	;# 
  2689  0EC7                     	;# 
  2690  0EC8                     	;# 
  2691  0EC9                     	;# 
  2692  0ECA                     	;# 
  2693  0ECB                     	;# 
  2694  0ECC                     	;# 
  2695  0F10                     	;# 
  2696  0F11                     	;# 
  2697  0F12                     	;# 
  2698  0F13                     	;# 
  2699  0F14                     	;# 
  2700  0F15                     	;# 
  2701  0F16                     	;# 
  2702  0F17                     	;# 
  2703  0F18                     	;# 
  2704  0F19                     	;# 
  2705  0F1A                     	;# 
  2706  0F1B                     	;# 
  2707  0F1C                     	;# 
  2708  0F1D                     	;# 
  2709  0F1E                     	;# 
  2710  0F1F                     	;# 
  2711  0F20                     	;# 
  2712  0F21                     	;# 
  2713  0F22                     	;# 
  2714  0F23                     	;# 
  2715  0F24                     	;# 
  2716  0F25                     	;# 
  2717  0F26                     	;# 
  2718  0F27                     	;# 
  2719  0F28                     	;# 
  2720  0F29                     	;# 
  2721  0F2A                     	;# 
  2722  0F2B                     	;# 
  2723  0F2C                     	;# 
  2724  0F2D                     	;# 
  2725  0F2E                     	;# 
  2726  0F2F                     	;# 
  2727  0F30                     	;# 
  2728  0F31                     	;# 
  2729  0F32                     	;# 
  2730  0F38                     	;# 
  2731  0F39                     	;# 
  2732  0F3A                     	;# 
  2733  0F3B                     	;# 
  2734  0F3C                     	;# 
  2735  0F3D                     	;# 
  2736  0F3E                     	;# 
  2737  0F3F                     	;# 
  2738  0F40                     	;# 
  2739  0F41                     	;# 
  2740  0F43                     	;# 
  2741  0F44                     	;# 
  2742  0F45                     	;# 
  2743  0F46                     	;# 
  2744  0F47                     	;# 
  2745  0F48                     	;# 
  2746  0F49                     	;# 
  2747  0F4A                     	;# 
  2748  0F4B                     	;# 
  2749  0F4C                     	;# 
  2750  0F4E                     	;# 
  2751  0F4F                     	;# 
  2752  0F50                     	;# 
  2753  0F51                     	;# 
  2754  0F52                     	;# 
  2755  0F53                     	;# 
  2756  0F54                     	;# 
  2757  0F55                     	;# 
  2758  0F56                     	;# 
  2759  0F57                     	;# 
  2760  0F59                     	;# 
  2761  0F5A                     	;# 
  2762  0F5B                     	;# 
  2763  0F5C                     	;# 
  2764  0F5D                     	;# 
  2765  0F61                     	;# 
  2766  0F62                     	;# 
  2767  0F64                     	;# 
  2768  0F65                     	;# 
  2769  0F66                     	;# 
  2770  0F67                     	;# 
  2771  0F68                     	;# 
  2772  0F69                     	;# 
  2773  0F6A                     	;# 
  2774  0F6B                     	;# 
  2775  0F6C                     	;# 
  2776  0F6D                     	;# 
  2777  0FE4                     	;# 
  2778  0FE5                     	;# 
  2779  0FE6                     	;# 
  2780  0FE7                     	;# 
  2781  0FE8                     	;# 
  2782  0FE9                     	;# 
  2783  0FEA                     	;# 
  2784  0FEB                     	;# 
  2785  0FED                     	;# 
  2786  0FEE                     	;# 
  2787  0FEF                     	;# 
  2788  0000                     	;# 
  2789  0001                     	;# 
  2790  0002                     	;# 
  2791  0003                     	;# 
  2792  0004                     	;# 
  2793  0005                     	;# 
  2794  0006                     	;# 
  2795  0007                     	;# 
  2796  0008                     	;# 
  2797  0009                     	;# 
  2798  000A                     	;# 
  2799  000B                     	;# 
  2800  000C                     	;# 
  2801  000D                     	;# 
  2802  000E                     	;# 
  2803  000F                     	;# 
  2804  0010                     	;# 
  2805  0011                     	;# 
  2806  0012                     	;# 
  2807  0013                     	;# 
  2808  0014                     	;# 
  2809  0015                     	;# 
  2810  0016                     	;# 
  2811  0017                     	;# 
  2812  0018                     	;# 
  2813  0019                     	;# 
  2814  001A                     	;# 
  2815  001C                     	;# 
  2816  001C                     	;# 
  2817  001D                     	;# 
  2818  001D                     	;# 
  2819  001E                     	;# 
  2820  001F                     	;# 
  2821  008C                     	;# 
  2822  008C                     	;# 
  2823  008D                     	;# 
  2824  008E                     	;# 
  2825  008E                     	;# 
  2826  008F                     	;# 
  2827  0090                     	;# 
  2828  0090                     	;# 
  2829  0091                     	;# 
  2830  0093                     	;# 
  2831  0094                     	;# 
  2832  0095                     	;# 
  2833  0096                     	;# 
  2834  0097                     	;# 
  2835  0098                     	;# 
  2836  0099                     	;# 
  2837  009A                     	;# 
  2838  009B                     	;# 
  2839  009C                     	;# 
  2840  009D                     	;# 
  2841  009E                     	;# 
  2842  010C                     	;# 
  2843  010D                     	;# 
  2844  010E                     	;# 
  2845  010E                     	;# 
  2846  010F                     	;# 
  2847  0110                     	;# 
  2848  0110                     	;# 
  2849  0111                     	;# 
  2850  0112                     	;# 
  2851  0112                     	;# 
  2852  0113                     	;# 
  2853  0114                     	;# 
  2854  0114                     	;# 
  2855  0115                     	;# 
  2856  0116                     	;# 
  2857  0116                     	;# 
  2858  0117                     	;# 
  2859  0119                     	;# 
  2860  0119                     	;# 
  2861  0119                     	;# 
  2862  011A                     	;# 
  2863  011A                     	;# 
  2864  011A                     	;# 
  2865  011B                     	;# 
  2866  011B                     	;# 
  2867  011B                     	;# 
  2868  011B                     	;# 
  2869  011B                     	;# 
  2870  011C                     	;# 
  2871  011C                     	;# 
  2872  011C                     	;# 
  2873  011D                     	;# 
  2874  011D                     	;# 
  2875  011D                     	;# 
  2876  011E                     	;# 
  2877  011E                     	;# 
  2878  011E                     	;# 
  2879  011F                     	;# 
  2880  011F                     	;# 
  2881  011F                     	;# 
  2882  011F                     	;# 
  2883  011F                     	;# 
  2884  018C                     	;# 
  2885  018D                     	;# 
  2886  018E                     	;# 
  2887  018F                     	;# 
  2888  0190                     	;# 
  2889  0191                     	;# 
  2890  0192                     	;# 
  2891  0196                     	;# 
  2892  0197                     	;# 
  2893  0198                     	;# 
  2894  0199                     	;# 
  2895  019A                     	;# 
  2896  019B                     	;# 
  2897  019C                     	;# 
  2898  020C                     	;# 
  2899  020C                     	;# 
  2900  020D                     	;# 
  2901  020E                     	;# 
  2902  020F                     	;# 
  2903  020F                     	;# 
  2904  0210                     	;# 
  2905  0210                     	;# 
  2906  0211                     	;# 
  2907  0211                     	;# 
  2908  0212                     	;# 
  2909  0212                     	;# 
  2910  0213                     	;# 
  2911  0214                     	;# 
  2912  0215                     	;# 
  2913  0215                     	;# 
  2914  0216                     	;# 
  2915  0216                     	;# 
  2916  0217                     	;# 
  2917  0217                     	;# 
  2918  0218                     	;# 
  2919  0218                     	;# 
  2920  0219                     	;# 
  2921  021A                     	;# 
  2922  021B                     	;# 
  2923  021B                     	;# 
  2924  021C                     	;# 
  2925  021C                     	;# 
  2926  021D                     	;# 
  2927  021D                     	;# 
  2928  021E                     	;# 
  2929  021F                     	;# 
  2930  028C                     	;# 
  2931  028C                     	;# 
  2932  028D                     	;# 
  2933  028D                     	;# 
  2934  028E                     	;# 
  2935  028F                     	;# 
  2936  0290                     	;# 
  2937  0290                     	;# 
  2938  0291                     	;# 
  2939  0292                     	;# 
  2940  0292                     	;# 
  2941  0293                     	;# 
  2942  0293                     	;# 
  2943  0294                     	;# 
  2944  0295                     	;# 
  2945  0296                     	;# 
  2946  0296                     	;# 
  2947  0297                     	;# 
  2948  0298                     	;# 
  2949  0298                     	;# 
  2950  0299                     	;# 
  2951  0299                     	;# 
  2952  029A                     	;# 
  2953  029B                     	;# 
  2954  029C                     	;# 
  2955  029C                     	;# 
  2956  029D                     	;# 
  2957  030C                     	;# 
  2958  030C                     	;# 
  2959  030D                     	;# 
  2960  030E                     	;# 
  2961  030F                     	;# 
  2962  0310                     	;# 
  2963  0310                     	;# 
  2964  0311                     	;# 
  2965  0312                     	;# 
  2966  0313                     	;# 
  2967  0314                     	;# 
  2968  0314                     	;# 
  2969  0315                     	;# 
  2970  0316                     	;# 
  2971  0317                     	;# 
  2972  0318                     	;# 
  2973  0318                     	;# 
  2974  0319                     	;# 
  2975  031A                     	;# 
  2976  031B                     	;# 
  2977  031C                     	;# 
  2978  031C                     	;# 
  2979  031D                     	;# 
  2980  031E                     	;# 
  2981  031F                     	;# 
  2982  038C                     	;# 
  2983  038D                     	;# 
  2984  038E                     	;# 
  2985  0390                     	;# 
  2986  0391                     	;# 
  2987  0392                     	;# 
  2988  040C                     	;# 
  2989  040D                     	;# 
  2990  040E                     	;# 
  2991  040F                     	;# 
  2992  0410                     	;# 
  2993  0411                     	;# 
  2994  0416                     	;# 
  2995  0416                     	;# 
  2996  0417                     	;# 
  2997  0418                     	;# 
  2998  0418                     	;# 
  2999  0419                     	;# 
  3000  041A                     	;# 
  3001  041A                     	;# 
  3002  041B                     	;# 
  3003  041C                     	;# 
  3004  041C                     	;# 
  3005  041D                     	;# 
  3006  041E                     	;# 
  3007  041F                     	;# 
  3008  048C                     	;# 
  3009  048C                     	;# 
  3010  048D                     	;# 
  3011  048E                     	;# 
  3012  048F                     	;# 
  3013  048F                     	;# 
  3014  0490                     	;# 
  3015  0491                     	;# 
  3016  0492                     	;# 
  3017  0492                     	;# 
  3018  0493                     	;# 
  3019  0494                     	;# 
  3020  0495                     	;# 
  3021  0495                     	;# 
  3022  0496                     	;# 
  3023  0497                     	;# 
  3024  0498                     	;# 
  3025  0499                     	;# 
  3026  049A                     	;# 
  3027  049B                     	;# 
  3028  049C                     	;# 
  3029  049D                     	;# 
  3030  050C                     	;# 
  3031  050C                     	;# 
  3032  050D                     	;# 
  3033  050E                     	;# 
  3034  050F                     	;# 
  3035  050F                     	;# 
  3036  0510                     	;# 
  3037  0511                     	;# 
  3038  0512                     	;# 
  3039  0512                     	;# 
  3040  0513                     	;# 
  3041  0514                     	;# 
  3042  0515                     	;# 
  3043  0515                     	;# 
  3044  0516                     	;# 
  3045  0517                     	;# 
  3046  0518                     	;# 
  3047  0519                     	;# 
  3048  051A                     	;# 
  3049  051B                     	;# 
  3050  051C                     	;# 
  3051  051D                     	;# 
  3052  058C                     	;# 
  3053  058C                     	;# 
  3054  058D                     	;# 
  3055  058E                     	;# 
  3056  058F                     	;# 
  3057  058F                     	;# 
  3058  0590                     	;# 
  3059  0591                     	;# 
  3060  0592                     	;# 
  3061  0593                     	;# 
  3062  060C                     	;# 
  3063  060D                     	;# 
  3064  060E                     	;# 
  3065  060F                     	;# 
  3066  0610                     	;# 
  3067  0611                     	;# 
  3068  0612                     	;# 
  3069  0613                     	;# 
  3070  0614                     	;# 
  3071  0616                     	;# 
  3072  0617                     	;# 
  3073  0618                     	;# 
  3074  0619                     	;# 
  3075  061A                     	;# 
  3076  061B                     	;# 
  3077  061C                     	;# 
  3078  061D                     	;# 
  3079  061E                     	;# 
  3080  068C                     	;# 
  3081  068D                     	;# 
  3082  068E                     	;# 
  3083  068F                     	;# 
  3084  0690                     	;# 
  3085  0691                     	;# 
  3086  0692                     	;# 
  3087  0693                     	;# 
  3088  0694                     	;# 
  3089  070C                     	;# 
  3090  070D                     	;# 
  3091  070E                     	;# 
  3092  070F                     	;# 
  3093  0710                     	;# 
  3094  0711                     	;# 
  3095  0712                     	;# 
  3096  0713                     	;# 
  3097  0714                     	;# 
  3098  0716                     	;# 
  3099  0717                     	;# 
  3100  0718                     	;# 
  3101  0719                     	;# 
  3102  071A                     	;# 
  3103  071B                     	;# 
  3104  071C                     	;# 
  3105  071D                     	;# 
  3106  071E                     	;# 
  3107  0796                     	;# 
  3108  0797                     	;# 
  3109  0798                     	;# 
  3110  0799                     	;# 
  3111  079A                     	;# 
  3112  079B                     	;# 
  3113  080C                     	;# 
  3114  080D                     	;# 
  3115  080E                     	;# 
  3116  080F                     	;# 
  3117  0810                     	;# 
  3118  0811                     	;# 
  3119  0812                     	;# 
  3120  0813                     	;# 
  3121  0814                     	;# 
  3122  081A                     	;# 
  3123  081B                     	;# 
  3124  081C                     	;# 
  3125  081D                     	;# 
  3126  081E                     	;# 
  3127  081F                     	;# 
  3128  088C                     	;# 
  3129  088D                     	;# 
  3130  088E                     	;# 
  3131  088F                     	;# 
  3132  0890                     	;# 
  3133  0891                     	;# 
  3134  0892                     	;# 
  3135  0893                     	;# 
  3136  0895                     	;# 
  3137  0896                     	;# 
  3138  0897                     	;# 
  3139  0898                     	;# 
  3140  0899                     	;# 
  3141  089A                     	;# 
  3142  089B                     	;# 
  3143  090C                     	;# 
  3144  090E                     	;# 
  3145  090F                     	;# 
  3146  091F                     	;# 
  3147  091F                     	;# 
  3148  098F                     	;# 
  3149  098F                     	;# 
  3150  0990                     	;# 
  3151  0991                     	;# 
  3152  0992                     	;# 
  3153  0993                     	;# 
  3154  0994                     	;# 
  3155  0995                     	;# 
  3156  0996                     	;# 
  3157  0997                     	;# 
  3158  0E0F                     	;# 
  3159  0E10                     	;# 
  3160  0E11                     	;# 
  3161  0E12                     	;# 
  3162  0E13                     	;# 
  3163  0E14                     	;# 
  3164  0E15                     	;# 
  3165  0E16                     	;# 
  3166  0E17                     	;# 
  3167  0E18                     	;# 
  3168  0E19                     	;# 
  3169  0E1A                     	;# 
  3170  0E1B                     	;# 
  3171  0E1C                     	;# 
  3172  0E1D                     	;# 
  3173  0E1E                     	;# 
  3174  0E1F                     	;# 
  3175  0E20                     	;# 
  3176  0E21                     	;# 
  3177  0E22                     	;# 
  3178  0E23                     	;# 
  3179  0E24                     	;# 
  3180  0E25                     	;# 
  3181  0E26                     	;# 
  3182  0E27                     	;# 
  3183  0E28                     	;# 
  3184  0E29                     	;# 
  3185  0E2A                     	;# 
  3186  0E2B                     	;# 
  3187  0E2C                     	;# 
  3188  0E2D                     	;# 
  3189  0E2E                     	;# 
  3190  0E2F                     	;# 
  3191  0E30                     	;# 
  3192  0E31                     	;# 
  3193  0E32                     	;# 
  3194  0E33                     	;# 
  3195  0E34                     	;# 
  3196  0E35                     	;# 
  3197  0E36                     	;# 
  3198  0E37                     	;# 
  3199  0E8F                     	;# 
  3200  0E90                     	;# 
  3201  0E91                     	;# 
  3202  0E92                     	;# 
  3203  0E93                     	;# 
  3204  0E94                     	;# 
  3205  0E95                     	;# 
  3206  0E96                     	;# 
  3207  0E97                     	;# 
  3208  0E9C                     	;# 
  3209  0E9D                     	;# 
  3210  0E9E                     	;# 
  3211  0EA1                     	;# 
  3212  0EA2                     	;# 
  3213  0EA3                     	;# 
  3214  0EA4                     	;# 
  3215  0EA5                     	;# 
  3216  0EA9                     	;# 
  3217  0EAA                     	;# 
  3218  0EAB                     	;# 
  3219  0EAC                     	;# 
  3220  0EB1                     	;# 
  3221  0EB2                     	;# 
  3222  0EB3                     	;# 
  3223  0EB8                     	;# 
  3224  0EB9                     	;# 
  3225  0EBA                     	;# 
  3226  0EBB                     	;# 
  3227  0EBC                     	;# 
  3228  0EBD                     	;# 
  3229  0EBE                     	;# 
  3230  0EC3                     	;# 
  3231  0EC5                     	;# 
  3232  0EC6                     	;# 
  3233  0EC7                     	;# 
  3234  0EC8                     	;# 
  3235  0EC9                     	;# 
  3236  0ECA                     	;# 
  3237  0ECB                     	;# 
  3238  0ECC                     	;# 
  3239  0F10                     	;# 
  3240  0F11                     	;# 
  3241  0F12                     	;# 
  3242  0F13                     	;# 
  3243  0F14                     	;# 
  3244  0F15                     	;# 
  3245  0F16                     	;# 
  3246  0F17                     	;# 
  3247  0F18                     	;# 
  3248  0F19                     	;# 
  3249  0F1A                     	;# 
  3250  0F1B                     	;# 
  3251  0F1C                     	;# 
  3252  0F1D                     	;# 
  3253  0F1E                     	;# 
  3254  0F1F                     	;# 
  3255  0F20                     	;# 
  3256  0F21                     	;# 
  3257  0F22                     	;# 
  3258  0F23                     	;# 
  3259  0F24                     	;# 
  3260  0F25                     	;# 
  3261  0F26                     	;# 
  3262  0F27                     	;# 
  3263  0F28                     	;# 
  3264  0F29                     	;# 
  3265  0F2A                     	;# 
  3266  0F2B                     	;# 
  3267  0F2C                     	;# 
  3268  0F2D                     	;# 
  3269  0F2E                     	;# 
  3270  0F2F                     	;# 
  3271  0F30                     	;# 
  3272  0F31                     	;# 
  3273  0F32                     	;# 
  3274  0F38                     	;# 
  3275  0F39                     	;# 
  3276  0F3A                     	;# 
  3277  0F3B                     	;# 
  3278  0F3C                     	;# 
  3279  0F3D                     	;# 
  3280  0F3E                     	;# 
  3281  0F3F                     	;# 
  3282  0F40                     	;# 
  3283  0F41                     	;# 
  3284  0F43                     	;# 
  3285  0F44                     	;# 
  3286  0F45                     	;# 
  3287  0F46                     	;# 
  3288  0F47                     	;# 
  3289  0F48                     	;# 
  3290  0F49                     	;# 
  3291  0F4A                     	;# 
  3292  0F4B                     	;# 
  3293  0F4C                     	;# 
  3294  0F4E                     	;# 
  3295  0F4F                     	;# 
  3296  0F50                     	;# 
  3297  0F51                     	;# 
  3298  0F52                     	;# 
  3299  0F53                     	;# 
  3300  0F54                     	;# 
  3301  0F55                     	;# 
  3302  0F56                     	;# 
  3303  0F57                     	;# 
  3304  0F59                     	;# 
  3305  0F5A                     	;# 
  3306  0F5B                     	;# 
  3307  0F5C                     	;# 
  3308  0F5D                     	;# 
  3309  0F61                     	;# 
  3310  0F62                     	;# 
  3311  0F64                     	;# 
  3312  0F65                     	;# 
  3313  0F66                     	;# 
  3314  0F67                     	;# 
  3315  0F68                     	;# 
  3316  0F69                     	;# 
  3317  0F6A                     	;# 
  3318  0F6B                     	;# 
  3319  0F6C                     	;# 
  3320  0F6D                     	;# 
  3321  0FE4                     	;# 
  3322  0FE5                     	;# 
  3323  0FE6                     	;# 
  3324  0FE7                     	;# 
  3325  0FE8                     	;# 
  3326  0FE9                     	;# 
  3327  0FEA                     	;# 
  3328  0FEB                     	;# 
  3329  0FED                     	;# 
  3330  0FEE                     	;# 
  3331  0FEF                     	;# 
  3332                           
  3333                           	psect	nvBANK0
  3334  0037                     __pnvBANK0:	
  3335  0037                     _eusartTxBufferRemaining:	
  3336  0037                     	ds	1
  3337  0016                     _LATAbits	set	22
  3338  000B                     _INTCONbits	set	11
  3339  0014                     _TRISD	set	20
  3340  0013                     _TRISC	set	19
  3341  0012                     _TRISB	set	18
  3342  0011                     _TRISA	set	17
  3343  0015                     _TRISE	set	21
  3344  0018                     _LATC	set	24
  3345  0017                     _LATB	set	23
  3346  0016                     _LATA	set	22
  3347  0019                     _LATD	set	25
  3348  001A                     _LATE	set	26
  3349  0119                     _RC1REG	set	281
  3350  011D                     _RC1STAbits	set	285
  3351  011A                     _TX1REG	set	282
  3352  011C                     _SP1BRGH	set	284
  3353  011B                     _SP1BRGL	set	283
  3354  011E                     _TX1STA	set	286
  3355  011D                     _RC1STA	set	285
  3356  011F                     _BAUD1CON	set	287
  3357  070F                     _PIR3bits	set	1807
  3358  0719                     _PIE3bits	set	1817
  3359  079B                     _PMD5	set	1947
  3360  079A                     _PMD4	set	1946
  3361  0799                     _PMD3	set	1945
  3362  0798                     _PMD2	set	1944
  3363  0797                     _PMD1	set	1943
  3364  0796                     _PMD0	set	1942
  3365  0892                     _OSCTUNE	set	2194
  3366  0893                     _OSCFRQ	set	2195
  3367  0891                     _OSCEN	set	2193
  3368  088F                     _OSCCON3	set	2191
  3369  088D                     _OSCCON1	set	2189
  3370  0ECB                     _RXPPSbits	set	3787
  3371  0F26                     _RC6PPS	set	3878
  3372  0F5B                     _ODCOND	set	3931
  3373  0F50                     _ODCONC	set	3920
  3374  0F45                     _ODCONB	set	3909
  3375  0F3A                     _ODCONA	set	3898
  3376  0F66                     _ODCONE	set	3942
  3377  0F4F                     _WPUC	set	3919
  3378  0F39                     _WPUA	set	3897
  3379  0F44                     _WPUB	set	3908
  3380  0F65                     _WPUE	set	3941
  3381  0F5A                     _WPUD	set	3930
  3382  0F38                     _ANSELA	set	3896
  3383  0F64                     _ANSELE	set	3940
  3384  0F59                     _ANSELD	set	3929
  3385  0F43                     _ANSELB	set	3907
  3386  0F4E                     _ANSELC	set	3918
  3387                           
  3388                           	psect	stringtext1
  3389  0073                     __pstringtext1:	
  3390  0073                     STR_3:	
  3391  0073  344B               	retlw	75	;'K'
  3392  0074  3465               	retlw	101	;'e'
  3393  0075  3479               	retlw	121	;'y'
  3394  0076  3462               	retlw	98	;'b'
  3395  0077  346F               	retlw	111	;'o'
  3396  0078  3461               	retlw	97	;'a'
  3397  0079  3472               	retlw	114	;'r'
  3398  007A  3464               	retlw	100	;'d'
  3399  007B  3420               	retlw	32	;' '
  3400  007C  3454               	retlw	84	;'T'
  3401  007D  3479               	retlw	121	;'y'
  3402  007E  3470               	retlw	112	;'p'
  3403  007F  3465               	retlw	101	;'e'
  3404  0080  3420               	retlw	32	;' '
  3405  0081  3448               	retlw	72	;'H'
  3406  0082  3420               	retlw	32	;' '
  3407  0083  346F               	retlw	111	;'o'
  3408  0084  3472               	retlw	114	;'r'
  3409  0085  3420               	retlw	32	;' '
  3410  0086  3459               	retlw	89	;'Y'
  3411  0087  343A               	retlw	58	;':'
  3412  0088  3420               	retlw	32	;' '
  3413  0089  344C               	retlw	76	;'L'
  3414  008A  3445               	retlw	69	;'E'
  3415  008B  3444               	retlw	68	;'D'
  3416  008C  3420               	retlw	32	;' '
  3417  008D  344F               	retlw	79	;'O'
  3418  008E  344E               	retlw	78	;'N'
  3419  008F  3420               	retlw	32	;' '
  3420  0090  3420               	retlw	32	;' '
  3421  0091  3420               	retlw	32	;' '
  3422  0092  3454               	retlw	84	;'T'
  3423  0093  3479               	retlw	121	;'y'
  3424  0094  3470               	retlw	112	;'p'
  3425  0095  3465               	retlw	101	;'e'
  3426  0096  3420               	retlw	32	;' '
  3427  0097  344C               	retlw	76	;'L'
  3428  0098  3420               	retlw	32	;' '
  3429  0099  346F               	retlw	111	;'o'
  3430  009A  3472               	retlw	114	;'r'
  3431  009B  3420               	retlw	32	;' '
  3432  009C  344E               	retlw	78	;'N'
  3433  009D  343A               	retlw	58	;':'
  3434  009E  3420               	retlw	32	;' '
  3435  009F  344C               	retlw	76	;'L'
  3436  00A0  3445               	retlw	69	;'E'
  3437  00A1  3444               	retlw	68	;'D'
  3438  00A2  3420               	retlw	32	;' '
  3439  00A3  344F               	retlw	79	;'O'
  3440  00A4  3446               	retlw	70	;'F'
  3441  00A5  3446               	retlw	70	;'F'
  3442  00A6  3420               	retlw	32	;' '
  3443  00A7  340D               	retlw	13
  3444  00A8  340A               	retlw	10
  3445  00A9  340A               	retlw	10
  3446  00AA  3400               	retlw	0
  3447                           
  3448                           	psect	stringtext2
  3449  00D9                     __pstringtext2:	
  3450  00D9                     STR_1:	
  3451  00D9  340D               	retlw	13
  3452  00DA  3442               	retlw	66	;'B'
  3453  00DB  3469               	retlw	105	;'i'
  3454  00DC  346E               	retlw	110	;'n'
  3455  00DD  3464               	retlw	100	;'d'
  3456  00DE  3475               	retlw	117	;'u'
  3457  00DF  3420               	retlw	32	;' '
  3458  00E0  346E               	retlw	110	;'n'
  3459  00E1  3465               	retlw	101	;'e'
  3460  00E2  3477               	retlw	119	;'w'
  3461  00E3  3420               	retlw	32	;' '
  3462  00E4  3474               	retlw	116	;'t'
  3463  00E5  3472               	retlw	114	;'r'
  3464  00E6  3469               	retlw	105	;'i'
  3465  00E7  3461               	retlw	97	;'a'
  3466  00E8  346C               	retlw	108	;'l'
  3467  00E9  3420               	retlw	32	;' '
  3468  00EA  3455               	retlw	85	;'U'
  3469  00EB  3441               	retlw	65	;'A'
  3470  00EC  3452               	retlw	82	;'R'
  3471  00ED  3454               	retlw	84	;'T'
  3472  00EE  3420               	retlw	32	;' '
  3473  00EF  346F               	retlw	111	;'o'
  3474  00F0  346E               	retlw	110	;'n'
  3475  00F1  3420               	retlw	32	;' '
  3476  00F2  3473               	retlw	115	;'s'
  3477  00F3  3469               	retlw	105	;'i'
  3478  00F4  346E               	retlw	110	;'n'
  3479  00F5  3467               	retlw	103	;'g'
  3480  00F6  346C               	retlw	108	;'l'
  3481  00F7  3465               	retlw	101	;'e'
  3482  00F8  3420               	retlw	32	;' '
  3483  00F9  3443               	retlw	67	;'C'
  3484  00FA  3475               	retlw	117	;'u'
  3485  00FB  3472               	retlw	114	;'r'
  3486  00FC  3469               	retlw	105	;'i'
  3487  00FD  346F               	retlw	111	;'o'
  3488  00FE  3473               	retlw	115	;'s'
  3489  00FF  3469               	retlw	105	;'i'
  3490  0100  3474               	retlw	116	;'t'
  3491  0101  3479               	retlw	121	;'y'
  3492  0102  3420               	retlw	32	;' '
  3493  0103  340D               	retlw	13
  3494  0104  340A               	retlw	10
  3495  0105  3400               	retlw	0
  3496                           
  3497                           	psect	stringtext3
  3498  0106                     __pstringtext3:	
  3499  0106                     STR_2:	
  3500  0106  3455               	retlw	85	;'U'
  3501  0107  3441               	retlw	65	;'A'
  3502  0108  3452               	retlw	82	;'R'
  3503  0109  3454               	retlw	84	;'T'
  3504  010A  3420               	retlw	32	;' '
  3505  010B  3443               	retlw	67	;'C'
  3506  010C  346F               	retlw	111	;'o'
  3507  010D  346D               	retlw	109	;'m'
  3508  010E  346D               	retlw	109	;'m'
  3509  010F  3475               	retlw	117	;'u'
  3510  0110  346E               	retlw	110	;'n'
  3511  0111  3469               	retlw	105	;'i'
  3512  0112  3463               	retlw	99	;'c'
  3513  0113  3461               	retlw	97	;'a'
  3514  0114  3474               	retlw	116	;'t'
  3515  0115  3469               	retlw	105	;'i'
  3516  0116  346F               	retlw	111	;'o'
  3517  0117  346E               	retlw	110	;'n'
  3518  0118  3473               	retlw	115	;'s'
  3519  0119  3420               	retlw	32	;' '
  3520  011A  3438               	retlw	56	;'8'
  3521  011B  342D               	retlw	45	;'-'
  3522  011C  3462               	retlw	98	;'b'
  3523  011D  3469               	retlw	105	;'i'
  3524  011E  3474               	retlw	116	;'t'
  3525  011F  3420               	retlw	32	;' '
  3526  0120  3452               	retlw	82	;'R'
  3527  0121  3478               	retlw	120	;'x'
  3528  0122  3420               	retlw	32	;' '
  3529  0123  3461               	retlw	97	;'a'
  3530  0124  346E               	retlw	110	;'n'
  3531  0125  3464               	retlw	100	;'d'
  3532  0126  3420               	retlw	32	;' '
  3533  0127  3454               	retlw	84	;'T'
  3534  0128  3478               	retlw	120	;'x'
  3535  0129  340D               	retlw	13
  3536  012A  340A               	retlw	10
  3537  012B  340A               	retlw	10
  3538  012C  3400               	retlw	0
  3539                           
  3540                           	psect	stringtext4
  3541  01DD                     __pstringtext4:	
  3542  01DD                     STR_6:	
  3543  01DD  3420               	retlw	32	;' '
  3544  01DE  342D               	retlw	45	;'-'
  3545  01DF  343E               	retlw	62	;'>'
  3546  01E0  3420               	retlw	32	;' '
  3547  01E1  3446               	retlw	70	;'F'
  3548  01E2  3461               	retlw	97	;'a'
  3549  01E3  3469               	retlw	105	;'i'
  3550  01E4  346C               	retlw	108	;'l'
  3551  01E5  3420               	retlw	32	;' '
  3552  01E6  3443               	retlw	67	;'C'
  3553  01E7  346F               	retlw	111	;'o'
  3554  01E8  346D               	retlw	109	;'m'
  3555  01E9  346D               	retlw	109	;'m'
  3556  01EA  3461               	retlw	97	;'a'
  3557  01EB  346E               	retlw	110	;'n'
  3558  01EC  3464               	retlw	100	;'d'
  3559  01ED  3421               	retlw	33	;'!'
  3560  01EE  3421               	retlw	33	;'!'
  3561  01EF  3420               	retlw	32	;' '
  3562  01F0  340D               	retlw	13
  3563  01F1  3400               	retlw	0
  3564                           
  3565                           	psect	stringtext5
  3566  01F2                     __pstringtext5:	
  3567  01F2                     STR_4:	
  3568  01F2  3420               	retlw	32	;' '
  3569  01F3  342D               	retlw	45	;'-'
  3570  01F4  343E               	retlw	62	;'>'
  3571  01F5  3420               	retlw	32	;' '
  3572  01F6  344C               	retlw	76	;'L'
  3573  01F7  3445               	retlw	69	;'E'
  3574  01F8  3444               	retlw	68	;'D'
  3575  01F9  3420               	retlw	32	;' '
  3576  01FA  344F               	retlw	79	;'O'
  3577  01FB  346E               	retlw	110	;'n'
  3578  01FC  3421               	retlw	33	;'!'
  3579  01FD  3421               	retlw	33	;'!'
  3580  01FE  3420               	retlw	32	;' '
  3581  01FF  3420               	retlw	32	;' '
  3582  0200  3420               	retlw	32	;' '
  3583  0201  3420               	retlw	32	;' '
  3584  0202  3420               	retlw	32	;' '
  3585  0203  3420               	retlw	32	;' '
  3586  0204  340D               	retlw	13
  3587  0205  3400               	retlw	0
  3588                           
  3589                           	psect	stringtext6
  3590  0206                     __pstringtext6:	
  3591  0206                     STR_5:	
  3592  0206  3420               	retlw	32	;' '
  3593  0207  342D               	retlw	45	;'-'
  3594  0208  343E               	retlw	62	;'>'
  3595  0209  3420               	retlw	32	;' '
  3596  020A  344C               	retlw	76	;'L'
  3597  020B  3445               	retlw	69	;'E'
  3598  020C  3444               	retlw	68	;'D'
  3599  020D  3420               	retlw	32	;' '
  3600  020E  344F               	retlw	79	;'O'
  3601  020F  3466               	retlw	102	;'f'
  3602  0210  3466               	retlw	102	;'f'
  3603  0211  3421               	retlw	33	;'!'
  3604  0212  3421               	retlw	33	;'!'
  3605  0213  3420               	retlw	32	;' '
  3606  0214  3420               	retlw	32	;' '
  3607  0215  3420               	retlw	32	;' '
  3608  0216  3420               	retlw	32	;' '
  3609  0217  3420               	retlw	32	;' '
  3610  0218  340D               	retlw	13
  3611  0219  3400               	retlw	0
  3612                           
  3613                           	psect	stringtext7
  3614  0000                     __pstringtext7:	
  3615                           
  3616                           ; #config settings
  3617  0000                     
  3618                           	psect	cinit
  3619  001F                     start_initialization:	
  3620  001F                     __initialization:	
  3621                           
  3622                           ; Clear objects allocated to COMMON
  3623  001F  01FA               	clrf	__pbssCOMMON& (0+127)
  3624  0020  01FB               	clrf	(__pbssCOMMON+1)& (0+127)
  3625                           
  3626                           ; Clear objects allocated to BANK0
  3627  0021  3020               	movlw	low __pbssBANK0
  3628  0022  0084               	movwf	4
  3629  0023  3000               	movlw	high __pbssBANK0
  3630  0024  0085               	movwf	5
  3631  0025  3014               	movlw	20
  3632  0026  3182  2241         	fcall	clear_ram0
  3633  0028                     end_of_initialization:	
  3634                           ;End of C runtime variable initialization code
  3635                           
  3636  0028                     __end_of__initialization:	
  3637  0028  107E               	bcf	int$flags,0	;clear compiler interrupt flag (level 1)
  3638  0029  0020               	movlb	0
  3639  002A  3182  2A30         	ljmp	_main	;jump to C main() function
  3640                           
  3641                           	psect	bssCOMMON
  3642  007A                     __pbssCOMMON:	
  3643  007A                     _eusartTxTail:	
  3644  007A                     	ds	1
  3645  007B                     _eusartTxHead:	
  3646  007B                     	ds	1
  3647                           
  3648                           	psect	bssBANK0
  3649  0020                     __pbssBANK0:	
  3650  0020                     _eusartRxBuffer:	
  3651  0020                     	ds	8
  3652  0028                     _eusartTxBuffer:	
  3653  0028                     	ds	8
  3654  0030                     _read_char:	
  3655  0030                     	ds	1
  3656  0031                     _eusartRxCount:	
  3657  0031                     	ds	1
  3658  0032                     _eusartRxTail:	
  3659  0032                     	ds	1
  3660  0033                     _eusartRxHead:	
  3661  0033                     	ds	1
  3662                           
  3663                           	psect	clrtext
  3664  0241                     clear_ram0:	
  3665                           ;	Called with FSR0 containing the base address, and
  3666                           ;	WREG with the size to clear
  3667                           
  3668  0241  0064               	clrwdt	;clear the watchdog before getting into this loop
  3669  0242                     clrloop0:	
  3670  0242  0180               	clrf	0	;clear RAM location pointed to by FSR
  3671  0243  3101               	addfsr 0,1
  3672  0244  0B89               	decfsz	9,f	;Have we reached the end of clearing yet?
  3673  0245  2A42               	goto	clrloop0	;have we reached the end yet?
  3674  0246  3400               	retlw	0	;all done for this memory range, return
  3675                           
  3676                           	psect	cstackCOMMON
  3677  0070                     __pcstackCOMMON:	
  3678  0070                     ?_PMD_Initialize:	
  3679  0070                     ?_PIN_MANAGER_Initialize:	
  3680                           ; 1 bytes @ 0x0
  3681                           
  3682  0070                     ?_OSCILLATOR_Initialize:	
  3683                           ; 1 bytes @ 0x0
  3684                           
  3685  0070                     ?_UART_Demo_Command_INT:	
  3686                           ; 1 bytes @ 0x0
  3687                           
  3688  0070                     ?_EUSART_Initialize:	
  3689                           ; 1 bytes @ 0x0
  3690                           
  3691  0070                     ?_EUSART_Read:	
  3692                           ; 1 bytes @ 0x0
  3693                           
  3694  0070                     ?_EUSART_Write:	
  3695                           ; 1 bytes @ 0x0
  3696                           
  3697  0070                     ?_putch:	
  3698                           ; 1 bytes @ 0x0
  3699                           
  3700  0070                     ?_EUSART_Transmit_ISR:	
  3701                           ; 1 bytes @ 0x0
  3702                           
  3703  0070                     ??_EUSART_Transmit_ISR:	
  3704                           ; 1 bytes @ 0x0
  3705                           
  3706  0070                     ?_EUSART_Receive_ISR:	
  3707                           ; 1 bytes @ 0x0
  3708                           
  3709  0070                     ??_EUSART_Receive_ISR:	
  3710                           ; 1 bytes @ 0x0
  3711                           
  3712  0070                     ?_SYSTEM_Initialize:	
  3713                           ; 1 bytes @ 0x0
  3714                           
  3715  0070                     ?_INTERRUPT_InterruptManager:	
  3716                           ; 1 bytes @ 0x0
  3717                           
  3718  0070                     ?_main:	
  3719                           ; 1 bytes @ 0x0
  3720                           
  3721                           
  3722                           ; 1 bytes @ 0x0
  3723  0070                     	ds	1
  3724  0071                     ??_INTERRUPT_InterruptManager:	
  3725                           
  3726                           ; 1 bytes @ 0x1
  3727  0071                     	ds	1
  3728  0072                     ??_PMD_Initialize:	
  3729  0072                     ??_PIN_MANAGER_Initialize:	
  3730                           ; 1 bytes @ 0x2
  3731                           
  3732  0072                     ??_OSCILLATOR_Initialize:	
  3733                           ; 1 bytes @ 0x2
  3734                           
  3735  0072                     ??_EUSART_Initialize:	
  3736                           ; 1 bytes @ 0x2
  3737                           
  3738  0072                     ??_EUSART_Read:	
  3739                           ; 1 bytes @ 0x2
  3740                           
  3741  0072                     ??_EUSART_Write:	
  3742                           ; 1 bytes @ 0x2
  3743                           
  3744                           
  3745                           ; 1 bytes @ 0x2
  3746  0072                     	ds	1
  3747  0073                     ??_SYSTEM_Initialize:	
  3748  0073                     EUSART_Read@readValue:	
  3749                           ; 1 bytes @ 0x3
  3750                           
  3751  0073                     EUSART_Write@txData:	
  3752                           ; 1 bytes @ 0x3
  3753                           
  3754                           
  3755                           ; 1 bytes @ 0x3
  3756  0073                     	ds	1
  3757  0074                     ??_putch:	
  3758  0074                     putch@txData:	
  3759                           ; 1 bytes @ 0x4
  3760                           
  3761                           
  3762                           ; 1 bytes @ 0x4
  3763  0074                     	ds	1
  3764  0075                     ?_printf:	
  3765  0075                     printf@f:	
  3766                           ; 2 bytes @ 0x5
  3767                           
  3768                           
  3769                           ; 2 bytes @ 0x5
  3770  0075                     	ds	2
  3771  0077                     ??_printf:	
  3772                           
  3773                           ; 1 bytes @ 0x7
  3774  0077                     	ds	3
  3775  007A                     ??_main:	
  3776                           
  3777                           	psect	cstackBANK0
  3778  0034                     __pcstackBANK0:	
  3779                           ; 1 bytes @ 0xA
  3780                           
  3781  0034                     printf@ap:	
  3782                           
  3783                           ; 1 bytes @ 0x0
  3784  0034                     	ds	1
  3785  0035                     printf@c:	
  3786                           
  3787                           ; 1 bytes @ 0x1
  3788  0035                     	ds	1
  3789  0036                     ??_UART_Demo_Command_INT:	
  3790                           
  3791                           ; 1 bytes @ 0x2
  3792  0036                     	ds	1
  3793                           
  3794                           	psect	maintext
  3795  0230                     __pmaintext:	
  3796 ;;
  3797 ;;Main: autosize = 0, tempsize = 0, incstack = 0, save=0
  3798 ;;
  3799 ;; *************** function _main *****************
  3800 ;; Defined at:
  3801 ;;		line 50 in file "main.c"
  3802 ;; Parameters:    Size  Location     Type
  3803 ;;		None
  3804 ;; Auto vars:     Size  Location     Type
  3805 ;;		None
  3806 ;; Return value:  Size  Location     Type
  3807 ;;                  1    wreg      void 
  3808 ;; Registers used:
  3809 ;;		wreg, fsr0l, fsr0h, fsr1l, fsr1h, status,2, status,0, pclath, cstack
  3810 ;; Tracked objects:
  3811 ;;		On entry : B1F/0
  3812 ;;		On exit  : 0/0
  3813 ;;		Unchanged: 0/0
  3814 ;; Data sizes:     COMMON   BANK0   BANK1   BANK2   BANK3   BANK4   BANK5   BANK6   BANK7   BANK8   BANK9  BANK10  BANK1
      +1  BANK12
  3815 ;;      Params:         0       0       0       0       0       0       0       0       0       0       0       0       
      +0       0
  3816 ;;      Locals:         0       0       0       0       0       0       0       0       0       0       0       0       
      +0       0
  3817 ;;      Temps:          0       0       0       0       0       0       0       0       0       0       0       0       
      +0       0
  3818 ;;      Totals:         0       0       0       0       0       0       0       0       0       0       0       0       
      +0       0
  3819 ;;Total ram usage:        0 bytes
  3820 ;; Hardware stack levels required when called:    6
  3821 ;; This function calls:
  3822 ;;		_SYSTEM_Initialize
  3823 ;;		_UART_Demo_Command_INT
  3824 ;; This function is called by:
  3825 ;;		Startup code after reset
  3826 ;; This function uses a non-reentrant model
  3827 ;;
  3828                           
  3829                           
  3830                           ;psect for function _main
  3831  0230                     _main:	
  3832                           
  3833                           ;main.c: 53: SYSTEM_Initialize();
  3834                           
  3835                           ;incstack = 0
  3836                           ; Regs used in _main: [wreg-fsr1h+status,2+status,0+pclath+cstack]
  3837  0230  3182  221A  3182   	fcall	_SYSTEM_Initialize
  3838                           
  3839                           ;main.c: 59: (INTCONbits.GIE = 1);
  3840  0233  178B               	bsf	11,7	;volatile
  3841                           
  3842                           ;main.c: 62: (INTCONbits.PEIE = 1);
  3843  0234  170B               	bsf	11,6	;volatile
  3844  0235                     l1088:	
  3845                           ;main.c: 70: while (1)
  3846                           
  3847                           
  3848                           ;main.c: 71: {
  3849                           ;main.c: 73: UART_Demo_Command_INT();
  3850  0235  3180  202C  3182   	fcall	_UART_Demo_Command_INT
  3851  0238  2A35               	goto	l1088
  3852  0239                     __end_of_main:	
  3853                           
  3854                           	psect	text1
  3855  002C                     __ptext1:	
  3856 ;; *************** function _UART_Demo_Command_INT *****************
  3857 ;; Defined at:
  3858 ;;		line 20 in file "UART_Demo.c"
  3859 ;; Parameters:    Size  Location     Type
  3860 ;;		None
  3861 ;; Auto vars:     Size  Location     Type
  3862 ;;		None
  3863 ;; Return value:  Size  Location     Type
  3864 ;;                  1    wreg      void 
  3865 ;; Registers used:
  3866 ;;		wreg, fsr0l, fsr0h, fsr1l, fsr1h, status,2, status,0, pclath, cstack
  3867 ;; Tracked objects:
  3868 ;;		On entry : 0/0
  3869 ;;		On exit  : 0/0
  3870 ;;		Unchanged: 0/0
  3871 ;; Data sizes:     COMMON   BANK0   BANK1   BANK2   BANK3   BANK4   BANK5   BANK6   BANK7   BANK8   BANK9  BANK10  BANK1
      +1  BANK12
  3872 ;;      Params:         0       0       0       0       0       0       0       0       0       0       0       0       
      +0       0
  3873 ;;      Locals:         0       0       0       0       0       0       0       0       0       0       0       0       
      +0       0
  3874 ;;      Temps:          0       1       0       0       0       0       0       0       0       0       0       0       
      +0       0
  3875 ;;      Totals:         0       1       0       0       0       0       0       0       0       0       0       0       
      +0       0
  3876 ;;Total ram usage:        1 bytes
  3877 ;; Hardware stack levels used:    1
  3878 ;; Hardware stack levels required when called:    5
  3879 ;; This function calls:
  3880 ;;		_EUSART_Read
  3881 ;;		_EUSART_Write
  3882 ;;		_printf
  3883 ;; This function is called by:
  3884 ;;		_main
  3885 ;; This function uses a non-reentrant model
  3886 ;;
  3887                           
  3888                           
  3889                           ;psect for function _UART_Demo_Command_INT
  3890  002C                     _UART_Demo_Command_INT:	
  3891                           
  3892                           ;UART_Demo.c: 22: if(eusartRxCount!=0)
  3893                           
  3894                           ;incstack = 0
  3895                           ; Regs used in _UART_Demo_Command_INT: [wreg-fsr1h+status,2+status,0+pclath+cstack]
  3896  002C  0020               	movlb	0	; select bank0
  3897  002D  0831               	movf	_eusartRxCount,w	;volatile
  3898  002E  1903               	btfsc	3,2
  3899  002F  0008               	return
  3900                           
  3901                           ;UART_Demo.c: 23: {
  3902                           ;UART_Demo.c: 25: read_char=EUSART_Read();
  3903  0030  3181  2150  3180   	fcall	_EUSART_Read
  3904  0033  0020               	movlb	0	; select bank0
  3905  0034  00B6               	movwf	??_UART_Demo_Command_INT
  3906  0035  0836               	movf	??_UART_Demo_Command_INT,w
  3907  0036  00B0               	movwf	_read_char
  3908                           
  3909                           ;UART_Demo.c: 27: EUSART_Write(read_char);
  3910  0037  0830               	movf	_read_char,w
  3911  0038  3181  212D  3180   	fcall	_EUSART_Write
  3912                           
  3913                           ;UART_Demo.c: 29: switch(read_char)
  3914  003B  2857               	goto	l1080
  3915  003C                     l228:	
  3916                           ;UART_Demo.c: 32: case 'y':
  3917                           ;UART_Demo.c: 33: case 'H':
  3918                           ;UART_Demo.c: 34: case 'h':
  3919                           ;UART_Demo.c: 35: {
  3920                           ;UART_Demo.c: 36: do { LATAbits.LATA7 = 1; } while(0);
  3921                           
  3922                           ;UART_Demo.c: 30: {
  3923                           ;UART_Demo.c: 31: case 'Y':
  3924                           
  3925  003C  0020               	movlb	0	; select bank0
  3926  003D  1796               	bsf	22,7	;volatile
  3927                           
  3928                           ;UART_Demo.c: 37: do { LATAbits.LATA4 = 0; } while(0);
  3929  003E  1216               	bcf	22,4	;volatile
  3930                           
  3931                           ;UART_Demo.c: 38: printf(" -> LED On!!      \r");
  3932  003F  30F2               	movlw	low (STR_4| (0+32768))
  3933  0040  00F5               	movwf	printf@f
  3934  0041  3081               	movlw	high (STR_4| (0+32768))
  3935  0042  00F6               	movwf	printf@f+1
  3936  0043  3181  216E         	fcall	_printf
  3937                           
  3938                           ;UART_Demo.c: 39: break;
  3939  0045  0008               	return
  3940  0046                     l237:	
  3941                           ;UART_Demo.c: 42: case 'n':
  3942                           ;UART_Demo.c: 43: case 'L':
  3943                           ;UART_Demo.c: 44: case 'l':
  3944                           ;UART_Demo.c: 45: {
  3945                           ;UART_Demo.c: 46: do { LATAbits.LATA7 = 0; } while(0);
  3946                           
  3947                           ;UART_Demo.c: 40: }
  3948                           ;UART_Demo.c: 41: case 'N':
  3949                           
  3950  0046  0020               	movlb	0	; select bank0
  3951  0047  1396               	bcf	22,7	;volatile
  3952                           
  3953                           ;UART_Demo.c: 47: do { LATAbits.LATA4 = 1; } while(0);
  3954  0048  1616               	bsf	22,4	;volatile
  3955                           
  3956                           ;UART_Demo.c: 48: printf(" -> LED Off!!     \r");
  3957  0049  3006               	movlw	low (STR_5| (0+32768))
  3958  004A  00F5               	movwf	printf@f
  3959  004B  3082               	movlw	high (STR_5| (0+32768))
  3960  004C  00F6               	movwf	printf@f+1
  3961  004D  3181  216E         	fcall	_printf
  3962                           
  3963                           ;UART_Demo.c: 49: break;
  3964  004F  0008               	return
  3965  0050                     l1076:	
  3966                           ;UART_Demo.c: 50: }
  3967                           ;UART_Demo.c: 51: default:
  3968                           
  3969                           
  3970                           ;UART_Demo.c: 52: {
  3971                           ;UART_Demo.c: 53: printf(" -> Fail Command!! \r");
  3972  0050  30DD               	movlw	low (STR_6| (0+32768))
  3973  0051  00F5               	movwf	printf@f
  3974  0052  3081               	movlw	high (STR_6| (0+32768))
  3975  0053  00F6               	movwf	printf@f+1
  3976  0054  3181  216E         	fcall	_printf
  3977                           
  3978                           ;UART_Demo.c: 55: }
  3979                           ;UART_Demo.c: 56: }
  3980                           
  3981                           ;UART_Demo.c: 54: break;
  3982  0056  0008               	return
  3983  0057                     l1080:	
  3984  0057  0020               	movlb	0	; select bank0
  3985  0058  0830               	movf	_read_char,w
  3986                           
  3987                           ; Switch size 1, requested type "space"
  3988                           ; Number of cases is 8, Range of values is 72 to 121
  3989                           ; switch strategies available:
  3990                           ; Name         Instructions Cycles
  3991                           ; simple_byte           25    13 (average)
  3992                           ; direct_byte          109     9 (fixed)
  3993                           ; jumptable            263     9 (fixed)
  3994                           ;	Chosen strategy is simple_byte
  3995  0059  3A48               	xorlw	72	; case 72
  3996  005A  1903               	skipnz
  3997  005B  283C               	goto	l228
  3998  005C  3A04               	xorlw	4	; case 76
  3999  005D  1903               	skipnz
  4000  005E  2846               	goto	l237
  4001  005F  3A02               	xorlw	2	; case 78
  4002  0060  1903               	skipnz
  4003  0061  2846               	goto	l237
  4004  0062  3A17               	xorlw	23	; case 89
  4005  0063  1903               	skipnz
  4006  0064  283C               	goto	l228
  4007  0065  3A31               	xorlw	49	; case 104
  4008  0066  1903               	skipnz
  4009  0067  283C               	goto	l228
  4010  0068  3A04               	xorlw	4	; case 108
  4011  0069  1903               	skipnz
  4012  006A  2846               	goto	l237
  4013  006B  3A02               	xorlw	2	; case 110
  4014  006C  1903               	skipnz
  4015  006D  2846               	goto	l237
  4016  006E  3A17               	xorlw	23	; case 121
  4017  006F  1903               	skipnz
  4018  0070  283C               	goto	l228
  4019  0071  2850               	goto	l1076
  4020  0072  0008               	return
  4021  0073                     __end_of_UART_Demo_Command_INT:	
  4022                           
  4023                           	psect	text2
  4024  016E                     __ptext2:	
  4025 ;; *************** function _printf *****************
  4026 ;; Defined at:
  4027 ;;		line 464 in file "C:\Program Files (x86)\Microchip\xc8\v1.44\sources\common\doprnt.c"
  4028 ;; Parameters:    Size  Location     Type
  4029 ;;  f               2    5[COMMON] PTR const unsigned char 
  4030 ;;		 -> STR_6(21), STR_5(20), STR_4(20), STR_3(56), 
  4031 ;;		 -> STR_2(39), STR_1(45), 
  4032 ;; Auto vars:     Size  Location     Type
  4033 ;;  tmpval          4    0        struct .
  4034 ;;  cp              2    0        PTR const unsigned char 
  4035 ;;  len             2    0        unsigned int 
  4036 ;;  val             2    0        unsigned int 
  4037 ;;  c               1    1[BANK0 ] char 
  4038 ;;  ap              1    0[BANK0 ] PTR void [1]
  4039 ;;		 -> ?_printf(2), 
  4040 ;;  flag            1    0        unsigned char 
  4041 ;;  prec            1    0        char 
  4042 ;; Return value:  Size  Location     Type
  4043 ;;                  2    5[COMMON] int 
  4044 ;; Registers used:
  4045 ;;		wreg, fsr0l, fsr0h, fsr1l, fsr1h, status,2, status,0, pclath, cstack
  4046 ;; Tracked objects:
  4047 ;;		On entry : 0/0
  4048 ;;		On exit  : 0/0
  4049 ;;		Unchanged: 0/0
  4050 ;; Data sizes:     COMMON   BANK0   BANK1   BANK2   BANK3   BANK4   BANK5   BANK6   BANK7   BANK8   BANK9  BANK10  BANK1
      +1  BANK12
  4051 ;;      Params:         2       0       0       0       0       0       0       0       0       0       0       0       
      +0       0
  4052 ;;      Locals:         0       2       0       0       0       0       0       0       0       0       0       0       
      +0       0
  4053 ;;      Temps:          3       0       0       0       0       0       0       0       0       0       0       0       
      +0       0
  4054 ;;      Totals:         5       2       0       0       0       0       0       0       0       0       0       0       
      +0       0
  4055 ;;Total ram usage:        7 bytes
  4056 ;; Hardware stack levels used:    1
  4057 ;; Hardware stack levels required when called:    4
  4058 ;; This function calls:
  4059 ;;		_putch
  4060 ;; This function is called by:
  4061 ;;		_UART_Demo_Command_INT
  4062 ;;		_UART_Demo_Initialize
  4063 ;; This function uses a non-reentrant model
  4064 ;;
  4065                           
  4066                           
  4067                           ;psect for function _printf
  4068  016E                     _printf:	
  4069                           
  4070                           ;doprnt.c: 466: va_list ap;
  4071                           ;doprnt.c: 499: signed char c;
  4072                           ;doprnt.c: 506: signed char prec;
  4073                           ;doprnt.c: 508: unsigned char flag;
  4074                           ;doprnt.c: 523: union {
  4075                           ;doprnt.c: 524: unsigned long vd;
  4076                           ;doprnt.c: 525: double integ;
  4077                           ;doprnt.c: 526: } tmpval;
  4078                           ;doprnt.c: 528: unsigned int val;
  4079                           ;doprnt.c: 529: unsigned len;
  4080                           ;doprnt.c: 530: const char * cp;
  4081                           ;doprnt.c: 533: *ap = __va_start();
  4082                           
  4083                           ;incstack = 0
  4084                           ; Regs used in _printf: [wreg-fsr1h+status,2+status,0+pclath+cstack]
  4085  016E  3077               	movlw	(low ((?_printf| 0+2)))& (0+255)
  4086  016F  00F7               	movwf	??_printf
  4087  0170  0877               	movf	??_printf,w
  4088  0171  0020               	movlb	0	; select bank0
  4089  0172  00B4               	movwf	printf@ap
  4090  0173                     l1066:	
  4091                           ;doprnt.c: 543: }
  4092                           ;doprnt.c: 1422: {
  4093                           
  4094                           ;doprnt.c: 542: continue;
  4095                           
  4096                           ;doprnt.c: 536: while(c = *f++) {
  4097                           
  4098  0173  0876               	movf	printf@f+1,w
  4099  0174  00F8               	movwf	??_printf+1
  4100  0175  0875               	movf	printf@f,w
  4101  0176  00F7               	movwf	??_printf
  4102  0177  0AF5               	incf	printf@f,f
  4103  0178  1903               	skipnz
  4104  0179  0AF6               	incf	printf@f+1,f
  4105  017A  0877               	movf	??_printf,w
  4106  017B  0084               	movwf	4
  4107  017C  0878               	movf	??_printf+1,w
  4108  017D  0085               	movwf	5
  4109  017E  0800               	movf	0,w	;code access
  4110  017F  00F9               	movwf	??_printf+2
  4111  0180  0879               	movf	??_printf+2,w
  4112  0181  0020               	movlb	0	; select bank0
  4113  0182  00B5               	movwf	printf@c
  4114  0183  0835               	movf	printf@c,w
  4115  0184  1903               	btfsc	3,2
  4116  0185  0008               	return
  4117                           
  4118                           ;doprnt.c: 540: {
  4119                           ;doprnt.c: 541: (putch(c) );
  4120  0186  0835               	movf	printf@c,w
  4121  0187  3182  2247  3181   	fcall	_putch
  4122  018A  2973               	goto	l1066
  4123  018B                     __end_of_printf:	
  4124                           ;doprnt.c: 1469: }
  4125                           ;doprnt.c: 1533: }
  4126                           ;doprnt.c: 1540: return 0;
  4127                           ;	Return value of _printf is never used
  4128                           
  4129                           
  4130                           	psect	text3
  4131  0247                     __ptext3:	
  4132 ;; *************** function _putch *****************
  4133 ;; Defined at:
  4134 ;;		line 156 in file "mcc_generated_files/eusart.c"
  4135 ;; Parameters:    Size  Location     Type
  4136 ;;  txData          1    wreg     unsigned char 
  4137 ;; Auto vars:     Size  Location     Type
  4138 ;;  txData          1    4[COMMON] unsigned char 
  4139 ;; Return value:  Size  Location     Type
  4140 ;;                  1    wreg      void 
  4141 ;; Registers used:
  4142 ;;		wreg, fsr1l, fsr1h, status,2, status,0, pclath, cstack
  4143 ;; Tracked objects:
  4144 ;;		On entry : 0/0
  4145 ;;		On exit  : 0/0
  4146 ;;		Unchanged: 0/0
  4147 ;; Data sizes:     COMMON   BANK0   BANK1   BANK2   BANK3   BANK4   BANK5   BANK6   BANK7   BANK8   BANK9  BANK10  BANK1
      +1  BANK12
  4148 ;;      Params:         0       0       0       0       0       0       0       0       0       0       0       0       
      +0       0
  4149 ;;      Locals:         1       0       0       0       0       0       0       0       0       0       0       0       
      +0       0
  4150 ;;      Temps:          0       0       0       0       0       0       0       0       0       0       0       0       
      +0       0
  4151 ;;      Totals:         1       0       0       0       0       0       0       0       0       0       0       0       
      +0       0
  4152 ;;Total ram usage:        1 bytes
  4153 ;; Hardware stack levels used:    1
  4154 ;; Hardware stack levels required when called:    3
  4155 ;; This function calls:
  4156 ;;		_EUSART_Write
  4157 ;; This function is called by:
  4158 ;;		_printf
  4159 ;; This function uses a non-reentrant model
  4160 ;;
  4161                           
  4162                           
  4163                           ;psect for function _putch
  4164  0247                     _putch:	
  4165                           
  4166                           ;incstack = 0
  4167                           ; Regs used in _putch: [wreg+fsr1l+fsr1h+status,2+status,0+pclath+cstack]
  4168                           ;putch@txData stored from wreg
  4169  0247  00F4               	movwf	putch@txData
  4170                           
  4171                           ;eusart.c: 158: EUSART_Write(txData);
  4172  0248  0874               	movf	putch@txData,w
  4173  0249  3181  212D         	fcall	_EUSART_Write
  4174  024B  0008               	return
  4175  024C                     __end_of_putch:	
  4176                           
  4177                           	psect	text4
  4178  012D                     __ptext4:	
  4179 ;; *************** function _EUSART_Write *****************
  4180 ;; Defined at:
  4181 ;;		line 128 in file "mcc_generated_files/eusart.c"
  4182 ;; Parameters:    Size  Location     Type
  4183 ;;  txData          1    wreg     unsigned char 
  4184 ;; Auto vars:     Size  Location     Type
  4185 ;;  txData          1    3[COMMON] unsigned char 
  4186 ;; Return value:  Size  Location     Type
  4187 ;;                  1    wreg      void 
  4188 ;; Registers used:
  4189 ;;		wreg, fsr1l, fsr1h, status,2, status,0
  4190 ;; Tracked objects:
  4191 ;;		On entry : 0/0
  4192 ;;		On exit  : 0/0
  4193 ;;		Unchanged: 0/0
  4194 ;; Data sizes:     COMMON   BANK0   BANK1   BANK2   BANK3   BANK4   BANK5   BANK6   BANK7   BANK8   BANK9  BANK10  BANK1
      +1  BANK12
  4195 ;;      Params:         0       0       0       0       0       0       0       0       0       0       0       0       
      +0       0
  4196 ;;      Locals:         1       0       0       0       0       0       0       0       0       0       0       0       
      +0       0
  4197 ;;      Temps:          1       0       0       0       0       0       0       0       0       0       0       0       
      +0       0
  4198 ;;      Totals:         2       0       0       0       0       0       0       0       0       0       0       0       
      +0       0
  4199 ;;Total ram usage:        2 bytes
  4200 ;; Hardware stack levels used:    1
  4201 ;; Hardware stack levels required when called:    2
  4202 ;; This function calls:
  4203 ;;		Nothing
  4204 ;; This function is called by:
  4205 ;;		_putch
  4206 ;;		_UART_Demo_Command_INT
  4207 ;; This function uses a non-reentrant model
  4208 ;;
  4209                           
  4210                           
  4211                           ;psect for function _EUSART_Write
  4212  012D                     _EUSART_Write:	
  4213                           
  4214                           ;incstack = 0
  4215                           ; Regs used in _EUSART_Write: [wreg+fsr1l+fsr1h+status,2+status,0]
  4216                           ;EUSART_Write@txData stored from wreg
  4217  012D  00F3               	movwf	EUSART_Write@txData
  4218  012E                     l1044:	
  4219                           ;eusart.c: 131: {
  4220                           
  4221                           ;eusart.c: 130: while(0 == eusartTxBufferRemaining)
  4222                           
  4223  012E  0020               	movlb	0	; select bank0
  4224  012F  0837               	movf	_eusartTxBufferRemaining,w	;volatile
  4225  0130  1903               	btfsc	3,2
  4226  0131  292E               	goto	l1044
  4227                           
  4228                           ;eusart.c: 132: }
  4229                           ;eusart.c: 134: if(0 == PIE3bits.TXIE)
  4230  0132  002E               	movlb	14	; select bank14
  4231  0133  1A19               	btfsc	25,4	;volatile
  4232  0134  2939               	goto	l50
  4233                           
  4234                           ;eusart.c: 135: {
  4235                           ;eusart.c: 136: TX1REG = txData;
  4236  0135  0873               	movf	EUSART_Write@txData,w
  4237  0136  0022               	movlb	2	; select bank2
  4238  0137  009A               	movwf	26	;volatile
  4239                           
  4240                           ;eusart.c: 137: }
  4241  0138  294D               	goto	l1058
  4242  0139                     l50:	
  4243                           
  4244                           ;eusart.c: 138: else
  4245                           ;eusart.c: 139: {
  4246                           ;eusart.c: 140: PIE3bits.TXIE = 0;
  4247  0139  1219               	bcf	25,4	;volatile
  4248                           
  4249                           ;eusart.c: 141: eusartTxBuffer[eusartTxHead++] = txData;
  4250  013A  0873               	movf	EUSART_Write@txData,w
  4251  013B  00F2               	movwf	??_EUSART_Write
  4252  013C  087B               	movf	_eusartTxHead,w
  4253  013D  3E28               	addlw	(low (_eusartTxBuffer| 0))& (0+255)
  4254  013E  0086               	movwf	6
  4255  013F  0187               	clrf	7
  4256  0140  0872               	movf	??_EUSART_Write,w
  4257  0141  0081               	movwf	1
  4258  0142  3001               	movlw	1
  4259  0143  00F2               	movwf	??_EUSART_Write
  4260  0144  0872               	movf	??_EUSART_Write,w
  4261  0145  07FB               	addwf	_eusartTxHead,f	;volatile
  4262                           
  4263                           ;eusart.c: 142: if(sizeof(eusartTxBuffer) <= eusartTxHead)
  4264  0146  3008               	movlw	8
  4265  0147  027B               	subwf	_eusartTxHead,w	;volatile
  4266  0148  1803               	btfsc	3,0
  4267                           
  4268                           ;eusart.c: 143: {
  4269                           ;eusart.c: 144: eusartTxHead = 0;
  4270  0149  01FB               	clrf	_eusartTxHead	;volatile
  4271                           
  4272                           ;eusart.c: 145: }
  4273                           ;eusart.c: 146: eusartTxBufferRemaining--;
  4274  014A  3001               	movlw	1
  4275  014B  0020               	movlb	0	; select bank0
  4276  014C  02B7               	subwf	_eusartTxBufferRemaining,f	;volatile
  4277  014D                     l1058:	
  4278                           
  4279                           ;eusart.c: 147: }
  4280                           ;eusart.c: 148: PIE3bits.TXIE = 1;
  4281  014D  002E               	movlb	14	; select bank14
  4282  014E  1619               	bsf	25,4	;volatile
  4283  014F  0008               	return
  4284  0150                     __end_of_EUSART_Write:	
  4285                           
  4286                           	psect	text5
  4287  0150                     __ptext5:	
  4288 ;; *************** function _EUSART_Read *****************
  4289 ;; Defined at:
  4290 ;;		line 108 in file "mcc_generated_files/eusart.c"
  4291 ;; Parameters:    Size  Location     Type
  4292 ;;		None
  4293 ;; Auto vars:     Size  Location     Type
  4294 ;;  readValue       1    3[COMMON] unsigned char 
  4295 ;; Return value:  Size  Location     Type
  4296 ;;                  1    wreg      unsigned char 
  4297 ;; Registers used:
  4298 ;;		wreg, fsr1l, fsr1h, status,2, status,0
  4299 ;; Tracked objects:
  4300 ;;		On entry : 0/0
  4301 ;;		On exit  : 0/0
  4302 ;;		Unchanged: 0/0
  4303 ;; Data sizes:     COMMON   BANK0   BANK1   BANK2   BANK3   BANK4   BANK5   BANK6   BANK7   BANK8   BANK9  BANK10  BANK1
      +1  BANK12
  4304 ;;      Params:         0       0       0       0       0       0       0       0       0       0       0       0       
      +0       0
  4305 ;;      Locals:         1       0       0       0       0       0       0       0       0       0       0       0       
      +0       0
  4306 ;;      Temps:          1       0       0       0       0       0       0       0       0       0       0       0       
      +0       0
  4307 ;;      Totals:         2       0       0       0       0       0       0       0       0       0       0       0       
      +0       0
  4308 ;;Total ram usage:        2 bytes
  4309 ;; Hardware stack levels used:    1
  4310 ;; Hardware stack levels required when called:    2
  4311 ;; This function calls:
  4312 ;;		Nothing
  4313 ;; This function is called by:
  4314 ;;		_UART_Demo_Command_INT
  4315 ;;		_getch
  4316 ;; This function uses a non-reentrant model
  4317 ;;
  4318                           
  4319                           
  4320                           ;psect for function _EUSART_Read
  4321  0150                     _EUSART_Read:	
  4322                           
  4323                           ;eusart.c: 110: uint8_t readValue = 0;
  4324                           
  4325                           ;incstack = 0
  4326                           ; Regs used in _EUSART_Read: [wreg+fsr1l+fsr1h+status,2+status,0]
  4327  0150  01F3               	clrf	EUSART_Read@readValue
  4328  0151                     l942:	
  4329                           ;eusart.c: 113: {
  4330                           
  4331                           ;eusart.c: 112: while(0 == eusartRxCount)
  4332                           
  4333  0151  0020               	movlb	0	; select bank0
  4334  0152  0831               	movf	_eusartRxCount,w	;volatile
  4335  0153  1903               	btfsc	3,2
  4336  0154  2951               	goto	l942
  4337                           
  4338                           ;eusart.c: 114: }
  4339                           ;eusart.c: 116: readValue = eusartRxBuffer[eusartRxTail++];
  4340  0155  0832               	movf	_eusartRxTail,w
  4341  0156  3E20               	addlw	(low (_eusartRxBuffer| 0))& (0+255)
  4342  0157  0086               	movwf	6
  4343  0158  0187               	clrf	7
  4344  0159  0801               	movf	1,w
  4345  015A  00F2               	movwf	??_EUSART_Read
  4346  015B  0872               	movf	??_EUSART_Read,w
  4347  015C  00F3               	movwf	EUSART_Read@readValue
  4348  015D  3001               	movlw	1
  4349  015E  00F2               	movwf	??_EUSART_Read
  4350  015F  0872               	movf	??_EUSART_Read,w
  4351  0160  07B2               	addwf	_eusartRxTail,f	;volatile
  4352                           
  4353                           ;eusart.c: 117: if(sizeof(eusartRxBuffer) <= eusartRxTail)
  4354  0161  3008               	movlw	8
  4355  0162  0232               	subwf	_eusartRxTail,w	;volatile
  4356  0163  1803               	btfsc	3,0
  4357                           
  4358                           ;eusart.c: 118: {
  4359                           ;eusart.c: 119: eusartRxTail = 0;
  4360  0164  01B2               	clrf	_eusartRxTail	;volatile
  4361                           
  4362                           ;eusart.c: 120: }
  4363                           ;eusart.c: 121: PIE3bits.RCIE = 0;
  4364  0165  002E               	movlb	14	; select bank14
  4365  0166  1299               	bcf	25,5	;volatile
  4366                           
  4367                           ;eusart.c: 122: eusartRxCount--;
  4368  0167  3001               	movlw	1
  4369  0168  0020               	movlb	0	; select bank0
  4370  0169  02B1               	subwf	_eusartRxCount,f	;volatile
  4371                           
  4372                           ;eusart.c: 123: PIE3bits.RCIE = 1;
  4373  016A  002E               	movlb	14	; select bank14
  4374  016B  1699               	bsf	25,5	;volatile
  4375                           
  4376                           ;eusart.c: 125: return readValue;
  4377  016C  0873               	movf	EUSART_Read@readValue,w
  4378  016D  0008               	return
  4379  016E                     __end_of_EUSART_Read:	
  4380                           
  4381                           	psect	text6
  4382  021A                     __ptext6:	
  4383 ;; *************** function _SYSTEM_Initialize *****************
  4384 ;; Defined at:
  4385 ;;		line 88 in file "mcc_generated_files/mcc.c"
  4386 ;; Parameters:    Size  Location     Type
  4387 ;;		None
  4388 ;; Auto vars:     Size  Location     Type
  4389 ;;		None
  4390 ;; Return value:  Size  Location     Type
  4391 ;;                  1    wreg      void 
  4392 ;; Registers used:
  4393 ;;		wreg, status,2, status,0, pclath, cstack
  4394 ;; Tracked objects:
  4395 ;;		On entry : 0/0
  4396 ;;		On exit  : 0/0
  4397 ;;		Unchanged: 0/0
  4398 ;; Data sizes:     COMMON   BANK0   BANK1   BANK2   BANK3   BANK4   BANK5   BANK6   BANK7   BANK8   BANK9  BANK10  BANK1
      +1  BANK12
  4399 ;;      Params:         0       0       0       0       0       0       0       0       0       0       0       0       
      +0       0
  4400 ;;      Locals:         0       0       0       0       0       0       0       0       0       0       0       0       
      +0       0
  4401 ;;      Temps:          0       0       0       0       0       0       0       0       0       0       0       0       
      +0       0
  4402 ;;      Totals:         0       0       0       0       0       0       0       0       0       0       0       0       
      +0       0
  4403 ;;Total ram usage:        0 bytes
  4404 ;; Hardware stack levels used:    1
  4405 ;; Hardware stack levels required when called:    3
  4406 ;; This function calls:
  4407 ;;		_EUSART_Initialize
  4408 ;;		_OSCILLATOR_Initialize
  4409 ;;		_PIN_MANAGER_Initialize
  4410 ;;		_PMD_Initialize
  4411 ;; This function is called by:
  4412 ;;		_main
  4413 ;; This function uses a non-reentrant model
  4414 ;;
  4415                           
  4416                           
  4417                           ;psect for function _SYSTEM_Initialize
  4418  021A                     _SYSTEM_Initialize:	
  4419                           
  4420                           ;mcc.c: 90: PMD_Initialize();
  4421                           
  4422                           ;incstack = 0
  4423                           ; Regs used in _SYSTEM_Initialize: [wreg+status,2+status,0+pclath+cstack]
  4424  021A  3182  2239  3182   	fcall	_PMD_Initialize
  4425                           
  4426                           ;mcc.c: 91: PIN_MANAGER_Initialize();
  4427  021D  3180  20AB  3182   	fcall	_PIN_MANAGER_Initialize
  4428                           
  4429                           ;mcc.c: 92: OSCILLATOR_Initialize();
  4430  0220  3182  2226  3182   	fcall	_OSCILLATOR_Initialize
  4431                           
  4432                           ;mcc.c: 93: EUSART_Initialize();
  4433  0223  3181  21C3         	fcall	_EUSART_Initialize
  4434  0225  0008               	return
  4435  0226                     __end_of_SYSTEM_Initialize:	
  4436                           
  4437                           	psect	text7
  4438  0239                     __ptext7:	
  4439 ;; *************** function _PMD_Initialize *****************
  4440 ;; Defined at:
  4441 ;;		line 110 in file "mcc_generated_files/mcc.c"
  4442 ;; Parameters:    Size  Location     Type
  4443 ;;		None
  4444 ;; Auto vars:     Size  Location     Type
  4445 ;;		None
  4446 ;; Return value:  Size  Location     Type
  4447 ;;                  1    wreg      void 
  4448 ;; Registers used:
  4449 ;;		status,2
  4450 ;; Tracked objects:
  4451 ;;		On entry : 0/0
  4452 ;;		On exit  : 0/0
  4453 ;;		Unchanged: 0/0
  4454 ;; Data sizes:     COMMON   BANK0   BANK1   BANK2   BANK3   BANK4   BANK5   BANK6   BANK7   BANK8   BANK9  BANK10  BANK1
      +1  BANK12
  4455 ;;      Params:         0       0       0       0       0       0       0       0       0       0       0       0       
      +0       0
  4456 ;;      Locals:         0       0       0       0       0       0       0       0       0       0       0       0       
      +0       0
  4457 ;;      Temps:          0       0       0       0       0       0       0       0       0       0       0       0       
      +0       0
  4458 ;;      Totals:         0       0       0       0       0       0       0       0       0       0       0       0       
      +0       0
  4459 ;;Total ram usage:        0 bytes
  4460 ;; Hardware stack levels used:    1
  4461 ;; Hardware stack levels required when called:    2
  4462 ;; This function calls:
  4463 ;;		Nothing
  4464 ;; This function is called by:
  4465 ;;		_SYSTEM_Initialize
  4466 ;; This function uses a non-reentrant model
  4467 ;;
  4468                           
  4469                           
  4470                           ;psect for function _PMD_Initialize
  4471  0239                     _PMD_Initialize:	
  4472                           
  4473                           ;mcc.c: 113: PMD0 = 0x00;
  4474                           
  4475                           ;incstack = 0
  4476                           ; Regs used in _PMD_Initialize: [status,2]
  4477  0239  002F               	movlb	15	; select bank15
  4478  023A  0196               	clrf	22	;volatile
  4479                           
  4480                           ;mcc.c: 115: PMD1 = 0x00;
  4481  023B  0197               	clrf	23	;volatile
  4482                           
  4483                           ;mcc.c: 117: PMD2 = 0x00;
  4484  023C  0198               	clrf	24	;volatile
  4485                           
  4486                           ;mcc.c: 119: PMD3 = 0x00;
  4487  023D  0199               	clrf	25	;volatile
  4488                           
  4489                           ;mcc.c: 121: PMD4 = 0x00;
  4490  023E  019A               	clrf	26	;volatile
  4491                           
  4492                           ;mcc.c: 123: PMD5 = 0x00;
  4493  023F  019B               	clrf	27	;volatile
  4494  0240  0008               	return
  4495  0241                     __end_of_PMD_Initialize:	
  4496                           
  4497                           	psect	text8
  4498  00AB                     __ptext8:	
  4499 ;; *************** function _PIN_MANAGER_Initialize *****************
  4500 ;; Defined at:
  4501 ;;		line 52 in file "mcc_generated_files/pin_manager.c"
  4502 ;; Parameters:    Size  Location     Type
  4503 ;;		None
  4504 ;; Auto vars:     Size  Location     Type
  4505 ;;		None
  4506 ;; Return value:  Size  Location     Type
  4507 ;;                  1    wreg      void 
  4508 ;; Registers used:
  4509 ;;		wreg, status,2, status,0
  4510 ;; Tracked objects:
  4511 ;;		On entry : 0/0
  4512 ;;		On exit  : 0/0
  4513 ;;		Unchanged: 0/0
  4514 ;; Data sizes:     COMMON   BANK0   BANK1   BANK2   BANK3   BANK4   BANK5   BANK6   BANK7   BANK8   BANK9  BANK10  BANK1
      +1  BANK12
  4515 ;;      Params:         0       0       0       0       0       0       0       0       0       0       0       0       
      +0       0
  4516 ;;      Locals:         0       0       0       0       0       0       0       0       0       0       0       0       
      +0       0
  4517 ;;      Temps:          0       0       0       0       0       0       0       0       0       0       0       0       
      +0       0
  4518 ;;      Totals:         0       0       0       0       0       0       0       0       0       0       0       0       
      +0       0
  4519 ;;Total ram usage:        0 bytes
  4520 ;; Hardware stack levels used:    1
  4521 ;; Hardware stack levels required when called:    2
  4522 ;; This function calls:
  4523 ;;		Nothing
  4524 ;; This function is called by:
  4525 ;;		_SYSTEM_Initialize
  4526 ;; This function uses a non-reentrant model
  4527 ;;
  4528                           
  4529                           
  4530                           ;psect for function _PIN_MANAGER_Initialize
  4531  00AB                     _PIN_MANAGER_Initialize:	
  4532                           
  4533                           ;pin_manager.c: 57: LATE = 0x00;
  4534                           
  4535                           ;incstack = 0
  4536                           ; Regs used in _PIN_MANAGER_Initialize: [wreg+status,2+status,0]
  4537  00AB  0020               	movlb	0	; select bank0
  4538  00AC  019A               	clrf	26	;volatile
  4539                           
  4540                           ;pin_manager.c: 58: LATD = 0x00;
  4541  00AD  0199               	clrf	25	;volatile
  4542                           
  4543                           ;pin_manager.c: 59: LATA = 0x80;
  4544  00AE  3080               	movlw	128
  4545  00AF  0096               	movwf	22	;volatile
  4546                           
  4547                           ;pin_manager.c: 60: LATB = 0x00;
  4548  00B0  0197               	clrf	23	;volatile
  4549                           
  4550                           ;pin_manager.c: 61: LATC = 0x00;
  4551  00B1  0198               	clrf	24	;volatile
  4552                           
  4553                           ;pin_manager.c: 66: TRISE = 0x07;
  4554  00B2  3007               	movlw	7
  4555  00B3  0095               	movwf	21	;volatile
  4556                           
  4557                           ;pin_manager.c: 67: TRISA = 0x6F;
  4558  00B4  306F               	movlw	111
  4559  00B5  0091               	movwf	17	;volatile
  4560                           
  4561                           ;pin_manager.c: 68: TRISB = 0xFF;
  4562  00B6  30FF               	movlw	255
  4563  00B7  0092               	movwf	18	;volatile
  4564                           
  4565                           ;pin_manager.c: 69: TRISC = 0xBF;
  4566  00B8  30BF               	movlw	191
  4567  00B9  0093               	movwf	19	;volatile
  4568                           
  4569                           ;pin_manager.c: 70: TRISD = 0xFF;
  4570  00BA  30FF               	movlw	255
  4571  00BB  0094               	movwf	20	;volatile
  4572                           
  4573                           ;pin_manager.c: 75: ANSELC = 0x3F;
  4574  00BC  303F               	movlw	63
  4575  00BD  003E               	movlb	30	; select bank30
  4576  00BE  00CE               	movwf	78	;volatile
  4577                           
  4578                           ;pin_manager.c: 76: ANSELB = 0xEF;
  4579  00BF  30EF               	movlw	239
  4580  00C0  00C3               	movwf	67	;volatile
  4581                           
  4582                           ;pin_manager.c: 77: ANSELD = 0xFF;
  4583  00C1  30FF               	movlw	255
  4584  00C2  00D9               	movwf	89	;volatile
  4585                           
  4586                           ;pin_manager.c: 78: ANSELE = 0x07;
  4587  00C3  3007               	movlw	7
  4588  00C4  00E4               	movwf	100	;volatile
  4589                           
  4590                           ;pin_manager.c: 79: ANSELA = 0x6F;
  4591  00C5  306F               	movlw	111
  4592  00C6  00B8               	movwf	56	;volatile
  4593                           
  4594                           ;pin_manager.c: 84: WPUD = 0x00;
  4595  00C7  01DA               	clrf	90	;volatile
  4596                           
  4597                           ;pin_manager.c: 85: WPUE = 0x00;
  4598  00C8  01E5               	clrf	101	;volatile
  4599                           
  4600                           ;pin_manager.c: 86: WPUB = 0x00;
  4601  00C9  01C4               	clrf	68	;volatile
  4602                           
  4603                           ;pin_manager.c: 87: WPUA = 0x00;
  4604  00CA  01B9               	clrf	57	;volatile
  4605                           
  4606                           ;pin_manager.c: 88: WPUC = 0x00;
  4607  00CB  01CF               	clrf	79	;volatile
  4608                           
  4609                           ;pin_manager.c: 93: ODCONE = 0x00;
  4610  00CC  01E6               	clrf	102	;volatile
  4611                           
  4612                           ;pin_manager.c: 94: ODCONA = 0x00;
  4613  00CD  01BA               	clrf	58	;volatile
  4614                           
  4615                           ;pin_manager.c: 95: ODCONB = 0x00;
  4616  00CE  01C5               	clrf	69	;volatile
  4617                           
  4618                           ;pin_manager.c: 96: ODCONC = 0x00;
  4619  00CF  01D0               	clrf	80	;volatile
  4620                           
  4621                           ;pin_manager.c: 97: ODCOND = 0x00;
  4622  00D0  01DB               	clrf	91	;volatile
  4623                           
  4624                           ;pin_manager.c: 104: RC6PPS = 0x10;
  4625  00D1  3010               	movlw	16
  4626  00D2  00A6               	movwf	38	;volatile
  4627                           
  4628                           ;pin_manager.c: 105: RXPPSbits.RXPPS = 0x17;
  4629  00D3  003D               	movlb	29	; select bank29
  4630  00D4  084B               	movf	75,w	;volatile
  4631  00D5  39E0               	andlw	-32
  4632  00D6  3817               	iorlw	23
  4633  00D7  00CB               	movwf	75	;volatile
  4634  00D8  0008               	return
  4635  00D9                     __end_of_PIN_MANAGER_Initialize:	
  4636                           
  4637                           	psect	text9
  4638  0226                     __ptext9:	
  4639 ;; *************** function _OSCILLATOR_Initialize *****************
  4640 ;; Defined at:
  4641 ;;		line 96 in file "mcc_generated_files/mcc.c"
  4642 ;; Parameters:    Size  Location     Type
  4643 ;;		None
  4644 ;; Auto vars:     Size  Location     Type
  4645 ;;		None
  4646 ;; Return value:  Size  Location     Type
  4647 ;;                  1    wreg      void 
  4648 ;; Registers used:
  4649 ;;		wreg, status,2
  4650 ;; Tracked objects:
  4651 ;;		On entry : 0/0
  4652 ;;		On exit  : 0/0
  4653 ;;		Unchanged: 0/0
  4654 ;; Data sizes:     COMMON   BANK0   BANK1   BANK2   BANK3   BANK4   BANK5   BANK6   BANK7   BANK8   BANK9  BANK10  BANK1
      +1  BANK12
  4655 ;;      Params:         0       0       0       0       0       0       0       0       0       0       0       0       
      +0       0
  4656 ;;      Locals:         0       0       0       0       0       0       0       0       0       0       0       0       
      +0       0
  4657 ;;      Temps:          0       0       0       0       0       0       0       0       0       0       0       0       
      +0       0
  4658 ;;      Totals:         0       0       0       0       0       0       0       0       0       0       0       0       
      +0       0
  4659 ;;Total ram usage:        0 bytes
  4660 ;; Hardware stack levels used:    1
  4661 ;; Hardware stack levels required when called:    2
  4662 ;; This function calls:
  4663 ;;		Nothing
  4664 ;; This function is called by:
  4665 ;;		_SYSTEM_Initialize
  4666 ;; This function uses a non-reentrant model
  4667 ;;
  4668                           
  4669                           
  4670                           ;psect for function _OSCILLATOR_Initialize
  4671  0226                     _OSCILLATOR_Initialize:	
  4672                           
  4673                           ;mcc.c: 99: OSCCON1 = 0x62;
  4674                           
  4675                           ;incstack = 0
  4676                           ; Regs used in _OSCILLATOR_Initialize: [wreg+status,2]
  4677  0226  3062               	movlw	98
  4678  0227  0031               	movlb	17	; select bank17
  4679  0228  008D               	movwf	13	;volatile
  4680                           
  4681                           ;mcc.c: 101: OSCCON3 = 0x00;
  4682  0229  018F               	clrf	15	;volatile
  4683                           
  4684                           ;mcc.c: 103: OSCEN = 0x00;
  4685  022A  0191               	clrf	17	;volatile
  4686                           
  4687                           ;mcc.c: 105: OSCFRQ = 0x02;
  4688  022B  3002               	movlw	2
  4689  022C  0093               	movwf	19	;volatile
  4690                           
  4691                           ;mcc.c: 107: OSCTUNE = 0x20;
  4692  022D  3020               	movlw	32
  4693  022E  0092               	movwf	18	;volatile
  4694  022F  0008               	return
  4695  0230                     __end_of_OSCILLATOR_Initialize:	
  4696                           
  4697                           	psect	text10
  4698  01C3                     __ptext10:	
  4699 ;; *************** function _EUSART_Initialize *****************
  4700 ;; Defined at:
  4701 ;;		line 72 in file "mcc_generated_files/eusart.c"
  4702 ;; Parameters:    Size  Location     Type
  4703 ;;		None
  4704 ;; Auto vars:     Size  Location     Type
  4705 ;;		None
  4706 ;; Return value:  Size  Location     Type
  4707 ;;                  1    wreg      void 
  4708 ;; Registers used:
  4709 ;;		wreg, status,2
  4710 ;; Tracked objects:
  4711 ;;		On entry : 0/0
  4712 ;;		On exit  : 0/0
  4713 ;;		Unchanged: 0/0
  4714 ;; Data sizes:     COMMON   BANK0   BANK1   BANK2   BANK3   BANK4   BANK5   BANK6   BANK7   BANK8   BANK9  BANK10  BANK1
      +1  BANK12
  4715 ;;      Params:         0       0       0       0       0       0       0       0       0       0       0       0       
      +0       0
  4716 ;;      Locals:         0       0       0       0       0       0       0       0       0       0       0       0       
      +0       0
  4717 ;;      Temps:          1       0       0       0       0       0       0       0       0       0       0       0       
      +0       0
  4718 ;;      Totals:         1       0       0       0       0       0       0       0       0       0       0       0       
      +0       0
  4719 ;;Total ram usage:        1 bytes
  4720 ;; Hardware stack levels used:    1
  4721 ;; Hardware stack levels required when called:    2
  4722 ;; This function calls:
  4723 ;;		Nothing
  4724 ;; This function is called by:
  4725 ;;		_SYSTEM_Initialize
  4726 ;; This function uses a non-reentrant model
  4727 ;;
  4728                           
  4729                           
  4730                           ;psect for function _EUSART_Initialize
  4731  01C3                     _EUSART_Initialize:	
  4732                           
  4733                           ;eusart.c: 75: PIE3bits.RCIE = 0;
  4734                           
  4735                           ;incstack = 0
  4736                           ; Regs used in _EUSART_Initialize: [wreg+status,2]
  4737  01C3  002E               	movlb	14	; select bank14
  4738  01C4  1299               	bcf	25,5	;volatile
  4739                           
  4740                           ;eusart.c: 76: PIE3bits.TXIE = 0;
  4741  01C5  1219               	bcf	25,4	;volatile
  4742                           
  4743                           ;eusart.c: 80: BAUD1CON = 0x08;
  4744  01C6  3008               	movlw	8
  4745  01C7  0022               	movlb	2	; select bank2
  4746  01C8  009F               	movwf	31	;volatile
  4747                           
  4748                           ;eusart.c: 83: RC1STA = 0x90;
  4749  01C9  3090               	movlw	144
  4750  01CA  009D               	movwf	29	;volatile
  4751                           
  4752                           ;eusart.c: 86: TX1STA = 0x24;
  4753  01CB  3024               	movlw	36
  4754  01CC  009E               	movwf	30	;volatile
  4755                           
  4756                           ;eusart.c: 89: SP1BRGL = 0x01;
  4757  01CD  3001               	movlw	1
  4758  01CE  009B               	movwf	27	;volatile
  4759                           
  4760                           ;eusart.c: 92: SP1BRGH = 0x00;
  4761  01CF  019C               	clrf	28	;volatile
  4762                           
  4763                           ;eusart.c: 96: eusartTxHead = 0;
  4764  01D0  01FB               	clrf	_eusartTxHead	;volatile
  4765                           
  4766                           ;eusart.c: 97: eusartTxTail = 0;
  4767  01D1  01FA               	clrf	_eusartTxTail	;volatile
  4768                           
  4769                           ;eusart.c: 98: eusartTxBufferRemaining = sizeof(eusartTxBuffer);
  4770  01D2  3008               	movlw	8
  4771  01D3  00F2               	movwf	??_EUSART_Initialize
  4772  01D4  0872               	movf	??_EUSART_Initialize,w
  4773  01D5  0020               	movlb	0	; select bank0
  4774  01D6  00B7               	movwf	_eusartTxBufferRemaining	;volatile
  4775                           
  4776                           ;eusart.c: 100: eusartRxHead = 0;
  4777  01D7  01B3               	clrf	_eusartRxHead	;volatile
  4778                           
  4779                           ;eusart.c: 101: eusartRxTail = 0;
  4780  01D8  01B2               	clrf	_eusartRxTail	;volatile
  4781                           
  4782                           ;eusart.c: 102: eusartRxCount = 0;
  4783  01D9  01B1               	clrf	_eusartRxCount	;volatile
  4784                           
  4785                           ;eusart.c: 105: PIE3bits.RCIE = 1;
  4786  01DA  002E               	movlb	14	; select bank14
  4787  01DB  1699               	bsf	25,5	;volatile
  4788  01DC  0008               	return
  4789  01DD                     __end_of_EUSART_Initialize:	
  4790                           
  4791                           	psect	intentry
  4792  0004                     __pintentry:	
  4793 ;; *************** function _INTERRUPT_InterruptManager *****************
  4794 ;; Defined at:
  4795 ;;		line 51 in file "mcc_generated_files/interrupt_manager.c"
  4796 ;; Parameters:    Size  Location     Type
  4797 ;;		None
  4798 ;; Auto vars:     Size  Location     Type
  4799 ;;		None
  4800 ;; Return value:  Size  Location     Type
  4801 ;;                  1    wreg      void 
  4802 ;; Registers used:
  4803 ;;		wreg, fsr1l, fsr1h, status,2, status,0, pclath, cstack
  4804 ;; Tracked objects:
  4805 ;;		On entry : 0/0
  4806 ;;		On exit  : 0/0
  4807 ;;		Unchanged: 0/0
  4808 ;; Data sizes:     COMMON   BANK0   BANK1   BANK2   BANK3   BANK4   BANK5   BANK6   BANK7   BANK8   BANK9  BANK10  BANK1
      +1  BANK12
  4809 ;;      Params:         0       0       0       0       0       0       0       0       0       0       0       0       
      +0       0
  4810 ;;      Locals:         0       0       0       0       0       0       0       0       0       0       0       0       
      +0       0
  4811 ;;      Temps:          1       0       0       0       0       0       0       0       0       0       0       0       
      +0       0
  4812 ;;      Totals:         1       0       0       0       0       0       0       0       0       0       0       0       
      +0       0
  4813 ;;Total ram usage:        1 bytes
  4814 ;; Hardware stack levels used:    1
  4815 ;; Hardware stack levels required when called:    1
  4816 ;; This function calls:
  4817 ;;		_EUSART_Receive_ISR
  4818 ;;		_EUSART_Transmit_ISR
  4819 ;; This function is called by:
  4820 ;;		Interrupt level 1
  4821 ;; This function uses a non-reentrant model
  4822 ;;
  4823                           
  4824  0004                     _INTERRUPT_InterruptManager:	
  4825                           
  4826                           ;incstack = 0
  4827  0004  147E               	bsf	126,0	;set compiler interrupt flag (level 1)
  4828                           
  4829                           ; Regs used in _INTERRUPT_InterruptManager: [wreg+fsr1l+fsr1h+status,2+status,0+pclath+c
      +                          stack]
  4830  0005  3180               	pagesel	$
  4831  0006  0020               	movlb	0	; select bank0
  4832  0007  087F               	movf	127,w
  4833  0008  00F1               	movwf	??_INTERRUPT_InterruptManager
  4834                           
  4835                           ;interrupt_manager.c: 54: if(INTCONbits.PEIE == 1)
  4836  0009  1F0B               	btfss	11,6	;volatile
  4837  000A  2818               	goto	i1l190
  4838                           
  4839                           ;interrupt_manager.c: 55: {
  4840                           ;interrupt_manager.c: 56: if(PIE3bits.TXIE == 1 && PIR3bits.TXIF == 1)
  4841  000B  002E               	movlb	14	; select bank14
  4842  000C  1A19               	btfsc	25,4	;volatile
  4843  000D  1E0F               	btfss	15,4	;volatile
  4844  000E  2813               	goto	i1l185
  4845                           
  4846                           ;interrupt_manager.c: 57: {
  4847                           ;interrupt_manager.c: 58: EUSART_Transmit_ISR();
  4848  000F  3181  218B  3180   	fcall	_EUSART_Transmit_ISR
  4849                           
  4850                           ;interrupt_manager.c: 59: }
  4851  0012  2818               	goto	i1l190
  4852  0013                     i1l185:	
  4853                           
  4854                           ;interrupt_manager.c: 60: else if(PIE3bits.RCIE == 1 && PIR3bits.RCIF == 1)
  4855  0013  1A99               	btfsc	25,5	;volatile
  4856  0014  1E8F               	btfss	15,5	;volatile
  4857  0015  2818               	goto	i1l190
  4858                           
  4859                           ;interrupt_manager.c: 61: {
  4860                           ;interrupt_manager.c: 62: EUSART_Receive_ISR();
  4861  0016  3181  21A8         	fcall	_EUSART_Receive_ISR
  4862  0018                     i1l190:	
  4863                           ;interrupt_manager.c: 69: else
  4864                           ;interrupt_manager.c: 70: {
  4865                           
  4866                           ;interrupt_manager.c: 67: }
  4867                           ;interrupt_manager.c: 68: }
  4868                           
  4869                           ;interrupt_manager.c: 64: else
  4870                           ;interrupt_manager.c: 65: {
  4871                           
  4872                           ;interrupt_manager.c: 63: }
  4873                           
  4874  0018  0871               	movf	??_INTERRUPT_InterruptManager,w
  4875  0019  0020               	movlb	0	; select bank0
  4876  001A  00FF               	movwf	127
  4877  001B  107E               	bcf	126,0	;clear compiler interrupt flag (level 1)
  4878  001C  0009               	retfie
  4879  001D                     __end_of_INTERRUPT_InterruptManager:	
  4880                           
  4881                           	psect	text12
  4882  018B                     __ptext12:	
  4883 ;; *************** function _EUSART_Transmit_ISR *****************
  4884 ;; Defined at:
  4885 ;;		line 161 in file "mcc_generated_files/eusart.c"
  4886 ;; Parameters:    Size  Location     Type
  4887 ;;		None
  4888 ;; Auto vars:     Size  Location     Type
  4889 ;;		None
  4890 ;; Return value:  Size  Location     Type
  4891 ;;                  1    wreg      void 
  4892 ;; Registers used:
  4893 ;;		wreg, fsr1l, fsr1h, status,2, status,0
  4894 ;; Tracked objects:
  4895 ;;		On entry : 0/0
  4896 ;;		On exit  : 0/0
  4897 ;;		Unchanged: 0/0
  4898 ;; Data sizes:     COMMON   BANK0   BANK1   BANK2   BANK3   BANK4   BANK5   BANK6   BANK7   BANK8   BANK9  BANK10  BANK1
      +1  BANK12
  4899 ;;      Params:         0       0       0       0       0       0       0       0       0       0       0       0       
      +0       0
  4900 ;;      Locals:         0       0       0       0       0       0       0       0       0       0       0       0       
      +0       0
  4901 ;;      Temps:          1       0       0       0       0       0       0       0       0       0       0       0       
      +0       0
  4902 ;;      Totals:         1       0       0       0       0       0       0       0       0       0       0       0       
      +0       0
  4903 ;;Total ram usage:        1 bytes
  4904 ;; Hardware stack levels used:    1
  4905 ;; This function calls:
  4906 ;;		Nothing
  4907 ;; This function is called by:
  4908 ;;		_INTERRUPT_InterruptManager
  4909 ;; This function uses a non-reentrant model
  4910 ;;
  4911                           
  4912                           
  4913                           ;psect for function _EUSART_Transmit_ISR
  4914  018B                     _EUSART_Transmit_ISR:	
  4915                           
  4916                           ;eusart.c: 165: if(sizeof(eusartTxBuffer) > eusartTxBufferRemaining)
  4917                           
  4918                           ;incstack = 0
  4919                           ; Regs used in _EUSART_Transmit_ISR: [wreg+fsr1l+fsr1h+status,2+status,0]
  4920  018B  3008               	movlw	8
  4921  018C  0020               	movlb	0	; select bank0
  4922  018D  0237               	subwf	_eusartTxBufferRemaining,w	;volatile
  4923  018E  1803               	skipnc
  4924  018F  29A5               	goto	i1l62
  4925                           
  4926                           ;eusart.c: 166: {
  4927                           ;eusart.c: 167: TX1REG = eusartTxBuffer[eusartTxTail++];
  4928  0190  087A               	movf	_eusartTxTail,w
  4929  0191  3E28               	addlw	(low (_eusartTxBuffer| 0))& (0+255)
  4930  0192  0086               	movwf	6
  4931  0193  0187               	clrf	7
  4932  0194  0801               	movf	1,w
  4933  0195  0022               	movlb	2	; select bank2
  4934  0196  009A               	movwf	26	;volatile
  4935  0197  3001               	movlw	1
  4936  0198  00F0               	movwf	??_EUSART_Transmit_ISR
  4937  0199  0870               	movf	??_EUSART_Transmit_ISR,w
  4938  019A  07FA               	addwf	_eusartTxTail,f	;volatile
  4939                           
  4940                           ;eusart.c: 168: if(sizeof(eusartTxBuffer) <= eusartTxTail)
  4941  019B  3008               	movlw	8
  4942  019C  027A               	subwf	_eusartTxTail,w	;volatile
  4943  019D  1803               	btfsc	3,0
  4944                           
  4945                           ;eusart.c: 169: {
  4946                           ;eusart.c: 170: eusartTxTail = 0;
  4947  019E  01FA               	clrf	_eusartTxTail	;volatile
  4948                           
  4949                           ;eusart.c: 171: }
  4950                           ;eusart.c: 172: eusartTxBufferRemaining++;
  4951  019F  3001               	movlw	1
  4952  01A0  00F0               	movwf	??_EUSART_Transmit_ISR
  4953  01A1  0870               	movf	??_EUSART_Transmit_ISR,w
  4954  01A2  0020               	movlb	0	; select bank0
  4955  01A3  07B7               	addwf	_eusartTxBufferRemaining,f	;volatile
  4956                           
  4957                           ;eusart.c: 173: }
  4958  01A4  0008               	return
  4959  01A5                     i1l62:	
  4960                           
  4961                           ;eusart.c: 174: else
  4962                           ;eusart.c: 175: {
  4963                           ;eusart.c: 176: PIE3bits.TXIE = 0;
  4964  01A5  002E               	movlb	14	; select bank14
  4965  01A6  1219               	bcf	25,4	;volatile
  4966  01A7  0008               	return
  4967  01A8                     __end_of_EUSART_Transmit_ISR:	
  4968                           
  4969                           	psect	text13
  4970  01A8                     __ptext13:	
  4971 ;; *************** function _EUSART_Receive_ISR *****************
  4972 ;; Defined at:
  4973 ;;		line 180 in file "mcc_generated_files/eusart.c"
  4974 ;; Parameters:    Size  Location     Type
  4975 ;;		None
  4976 ;; Auto vars:     Size  Location     Type
  4977 ;;		None
  4978 ;; Return value:  Size  Location     Type
  4979 ;;                  1    wreg      void 
  4980 ;; Registers used:
  4981 ;;		wreg, fsr1l, fsr1h, status,2, status,0
  4982 ;; Tracked objects:
  4983 ;;		On entry : 0/0
  4984 ;;		On exit  : 0/0
  4985 ;;		Unchanged: 0/0
  4986 ;; Data sizes:     COMMON   BANK0   BANK1   BANK2   BANK3   BANK4   BANK5   BANK6   BANK7   BANK8   BANK9  BANK10  BANK1
      +1  BANK12
  4987 ;;      Params:         0       0       0       0       0       0       0       0       0       0       0       0       
      +0       0
  4988 ;;      Locals:         0       0       0       0       0       0       0       0       0       0       0       0       
      +0       0
  4989 ;;      Temps:          1       0       0       0       0       0       0       0       0       0       0       0       
      +0       0
  4990 ;;      Totals:         1       0       0       0       0       0       0       0       0       0       0       0       
      +0       0
  4991 ;;Total ram usage:        1 bytes
  4992 ;; Hardware stack levels used:    1
  4993 ;; This function calls:
  4994 ;;		Nothing
  4995 ;; This function is called by:
  4996 ;;		_INTERRUPT_InterruptManager
  4997 ;; This function uses a non-reentrant model
  4998 ;;
  4999                           
  5000                           
  5001                           ;psect for function _EUSART_Receive_ISR
  5002  01A8                     _EUSART_Receive_ISR:	
  5003                           
  5004                           ;eusart.c: 183: if(1 == RC1STAbits.OERR)
  5005                           
  5006                           ;incstack = 0
  5007                           ; Regs used in _EUSART_Receive_ISR: [wreg+fsr1l+fsr1h+status,2+status,0]
  5008  01A8  0022               	movlb	2	; select bank2
  5009  01A9  1C9D               	btfss	29,1	;volatile
  5010  01AA  29AD               	goto	i1l984
  5011                           
  5012                           ;eusart.c: 184: {
  5013                           ;eusart.c: 187: RC1STAbits.CREN = 0;
  5014  01AB  121D               	bcf	29,4	;volatile
  5015                           
  5016                           ;eusart.c: 188: RC1STAbits.CREN = 1;
  5017  01AC  161D               	bsf	29,4	;volatile
  5018  01AD                     i1l984:	
  5019                           
  5020                           ;eusart.c: 189: }
  5021                           ;eusart.c: 192: eusartRxBuffer[eusartRxHead++] = RC1REG;
  5022  01AD  0819               	movf	25,w	;volatile
  5023  01AE  00F0               	movwf	??_EUSART_Receive_ISR
  5024  01AF  0020               	movlb	0	; select bank0
  5025  01B0  0833               	movf	_eusartRxHead,w
  5026  01B1  3E20               	addlw	(low (_eusartRxBuffer| 0))& (0+255)
  5027  01B2  0086               	movwf	6
  5028  01B3  0187               	clrf	7
  5029  01B4  0870               	movf	??_EUSART_Receive_ISR,w
  5030  01B5  0081               	movwf	1
  5031  01B6  3001               	movlw	1
  5032  01B7  00F0               	movwf	??_EUSART_Receive_ISR
  5033  01B8  0870               	movf	??_EUSART_Receive_ISR,w
  5034  01B9  07B3               	addwf	_eusartRxHead,f	;volatile
  5035                           
  5036                           ;eusart.c: 193: if(sizeof(eusartRxBuffer) <= eusartRxHead)
  5037  01BA  3008               	movlw	8
  5038  01BB  0233               	subwf	_eusartRxHead,w	;volatile
  5039  01BC  1803               	btfsc	3,0
  5040                           
  5041                           ;eusart.c: 194: {
  5042                           ;eusart.c: 195: eusartRxHead = 0;
  5043  01BD  01B3               	clrf	_eusartRxHead	;volatile
  5044                           
  5045                           ;eusart.c: 196: }
  5046                           ;eusart.c: 197: eusartRxCount++;
  5047  01BE  3001               	movlw	1
  5048  01BF  00F0               	movwf	??_EUSART_Receive_ISR
  5049  01C0  0870               	movf	??_EUSART_Receive_ISR,w
  5050  01C1  07B1               	addwf	_eusartRxCount,f	;volatile
  5051  01C2  0008               	return
  5052  01C3                     __end_of_EUSART_Receive_ISR:	
  5053  007E                     btemp	set	126	;btemp
  5054  007E                     int$flags	set	126
  5055  007E                     wtemp0	set	126


Data Sizes:
    Strings     201
    Constant    0
    Data        0
    BSS         22
    Persistent  1
    Stack       0

Auto Spaces:
    Space          Size  Autos    Used
    COMMON           14     10      12
    BANK0            80      3      24
    BANK1            80      0       0
    BANK2            80      0       0
    BANK3            80      0       0
    BANK4            80      0       0
    BANK5            80      0       0
    BANK6            80      0       0
    BANK7            80      0       0
    BANK8            80      0       0
    BANK9            80      0       0
    BANK10           80      0       0
    BANK11           80      0       0
    BANK12           48      0       0

Pointer List with Targets:

    printf@f	PTR const unsigned char  size(2) Largest target is 56
		 -> STR_6(CODE[21]), STR_5(CODE[20]), STR_4(CODE[20]), STR_3(CODE[56]), 
		 -> STR_2(CODE[39]), STR_1(CODE[45]), 

    printf@ap	PTR void [1] size(1) Largest target is 2
		 -> ?_printf(COMMON[2]), 


Critical Paths under _main in COMMON

    _UART_Demo_Command_INT->_printf
    _printf->_putch
    _putch->_EUSART_Write
    _SYSTEM_Initialize->_EUSART_Initialize

Critical Paths under _INTERRUPT_InterruptManager in COMMON

    _INTERRUPT_InterruptManager->_EUSART_Receive_ISR
    _INTERRUPT_InterruptManager->_EUSART_Transmit_ISR

Critical Paths under _main in BANK0

    _main->_UART_Demo_Command_INT
    _UART_Demo_Command_INT->_printf

Critical Paths under _INTERRUPT_InterruptManager in BANK0

    None.

Critical Paths under _main in BANK1

    None.

Critical Paths under _INTERRUPT_InterruptManager in BANK1

    None.

Critical Paths under _main in BANK2

    None.

Critical Paths under _INTERRUPT_InterruptManager in BANK2

    None.

Critical Paths under _main in BANK3

    None.

Critical Paths under _INTERRUPT_InterruptManager in BANK3

    None.

Critical Paths under _main in BANK4

    None.

Critical Paths under _INTERRUPT_InterruptManager in BANK4

    None.

Critical Paths under _main in BANK5

    None.

Critical Paths under _INTERRUPT_InterruptManager in BANK5

    None.

Critical Paths under _main in BANK6

    None.

Critical Paths under _INTERRUPT_InterruptManager in BANK6

    None.

Critical Paths under _main in BANK7

    None.

Critical Paths under _INTERRUPT_InterruptManager in BANK7

    None.

Critical Paths under _main in BANK8

    None.

Critical Paths under _INTERRUPT_InterruptManager in BANK8

    None.

Critical Paths under _main in BANK9

    None.

Critical Paths under _INTERRUPT_InterruptManager in BANK9

    None.

Critical Paths under _main in BANK10

    None.

Critical Paths under _INTERRUPT_InterruptManager in BANK10

    None.

Critical Paths under _main in BANK11

    None.

Critical Paths under _INTERRUPT_InterruptManager in BANK11

    None.

Critical Paths under _main in BANK12

    None.

Critical Paths under _INTERRUPT_InterruptManager in BANK12

    None.

Call Graph Tables:

 ---------------------------------------------------------------------------------
 (Depth) Function   	        Calls       Base Space   Used Autos Params    Refs
 ---------------------------------------------------------------------------------
 (0) _main                                                 0     0      0     637
                  _SYSTEM_Initialize
              _UART_Demo_Command_INT
 ---------------------------------------------------------------------------------
 (1) _UART_Demo_Command_INT                                1     1      0     637
                                              2 BANK0      1     1      0
                        _EUSART_Read
                       _EUSART_Write
                             _printf
 ---------------------------------------------------------------------------------
 (2) _printf                                              19    17      2     551
                                              5 COMMON     5     3      2
                                              0 BANK0      2     2      0
                              _putch
 ---------------------------------------------------------------------------------
 (3) _putch                                                1     1      0      93
                                              4 COMMON     1     1      0
                       _EUSART_Write
 ---------------------------------------------------------------------------------
 (4) _EUSART_Write                                         2     2      0      62
                                              2 COMMON     2     2      0
 ---------------------------------------------------------------------------------
 (2) _EUSART_Read                                          2     2      0      24
                                              2 COMMON     2     2      0
 ---------------------------------------------------------------------------------
 (1) _SYSTEM_Initialize                                    0     0      0       0
                  _EUSART_Initialize
              _OSCILLATOR_Initialize
             _PIN_MANAGER_Initialize
                     _PMD_Initialize
 ---------------------------------------------------------------------------------
 (2) _PMD_Initialize                                       0     0      0       0
 ---------------------------------------------------------------------------------
 (2) _PIN_MANAGER_Initialize                               0     0      0       0
 ---------------------------------------------------------------------------------
 (2) _OSCILLATOR_Initialize                                0     0      0       0
 ---------------------------------------------------------------------------------
 (2) _EUSART_Initialize                                    1     1      0       0
                                              2 COMMON     1     1      0
 ---------------------------------------------------------------------------------
 Estimated maximum stack depth 4
 ---------------------------------------------------------------------------------
 (Depth) Function   	        Calls       Base Space   Used Autos Params    Refs
 ---------------------------------------------------------------------------------
 (5) _INTERRUPT_InterruptManager                           1     1      0       0
                                              1 COMMON     1     1      0
                 _EUSART_Receive_ISR
                _EUSART_Transmit_ISR
 ---------------------------------------------------------------------------------
 (6) _EUSART_Transmit_ISR                                  1     1      0       0
                                              0 COMMON     1     1      0
 ---------------------------------------------------------------------------------
 (6) _EUSART_Receive_ISR                                   1     1      0       0
                                              0 COMMON     1     1      0
 ---------------------------------------------------------------------------------
 Estimated maximum stack depth 6
 ---------------------------------------------------------------------------------

 Call Graph Graphs:

 _main (ROOT)
   _SYSTEM_Initialize
     _EUSART_Initialize
     _OSCILLATOR_Initialize
     _PIN_MANAGER_Initialize
     _PMD_Initialize
   _UART_Demo_Command_INT
     _EUSART_Read
     _EUSART_Write
     _printf
       _putch
         _EUSART_Write

 _INTERRUPT_InterruptManager (ROOT)
   _EUSART_Receive_ISR
   _EUSART_Transmit_ISR

 Address spaces:
Name               Size   Autos  Total    Cost      Usage
BIGRAM             3F0      0       0       0        0.0%
EEDATA             100      0       0       0        0.0%
NULL                 0      0       0       0        0.0%
CODE                 0      0       0       0        0.0%
BITCOMMON            E      0       0       1        0.0%
BITSFR0              0      0       0       1        0.0%
SFR0                 0      0       0       1        0.0%
COMMON               E      A       C       2       85.7%
BITSFR1              0      0       0       2        0.0%
SFR1                 0      0       0       2        0.0%
BITSFR2              0      0       0       3        0.0%
SFR2                 0      0       0       3        0.0%
STACK                0      0       0       3        0.0%
BITBANK0            50      0       0       4        0.0%
BITSFR3              0      0       0       4        0.0%
SFR3                 0      0       0       4        0.0%
BANK0               50      3      18       5       30.0%
BITSFR4              0      0       0       5        0.0%
SFR4                 0      0       0       5        0.0%
BITBANK1            50      0       0       6        0.0%
BITSFR5              0      0       0       6        0.0%
SFR5                 0      0       0       6        0.0%
BANK1               50      0       0       7        0.0%
BITSFR6              0      0       0       7        0.0%
SFR6                 0      0       0       7        0.0%
BITBANK2            50      0       0       8        0.0%
BITSFR7              0      0       0       8        0.0%
SFR7                 0      0       0       8        0.0%
BANK2               50      0       0       9        0.0%
BITSFR8              0      0       0       9        0.0%
SFR8                 0      0       0       9        0.0%
BITBANK3            50      0       0      10        0.0%
BITSFR9              0      0       0      10        0.0%
SFR9                 0      0       0      10        0.0%
BANK3               50      0       0      11        0.0%
BITSFR10             0      0       0      11        0.0%
SFR10                0      0       0      11        0.0%
BITBANK4            50      0       0      12        0.0%
BITSFR11             0      0       0      12        0.0%
SFR11                0      0       0      12        0.0%
BANK4               50      0       0      13        0.0%
BITSFR12             0      0       0      13        0.0%
SFR12                0      0       0      13        0.0%
BITBANK5            50      0       0      14        0.0%
BITSFR13             0      0       0      14        0.0%
SFR13                0      0       0      14        0.0%
BANK5               50      0       0      15        0.0%
BITSFR14             0      0       0      15        0.0%
SFR14                0      0       0      15        0.0%
BITBANK6            50      0       0      16        0.0%
BITSFR15             0      0       0      16        0.0%
SFR15                0      0       0      16        0.0%
BANK6               50      0       0      17        0.0%
BITSFR16             0      0       0      17        0.0%
SFR16                0      0       0      17        0.0%
BITBANK7            50      0       0      18        0.0%
BITSFR17             0      0       0      18        0.0%
SFR17                0      0       0      18        0.0%
BANK7               50      0       0      19        0.0%
BITSFR18             0      0       0      19        0.0%
SFR18                0      0       0      19        0.0%
BITSFR19             0      0       0      20        0.0%
SFR19                0      0       0      20        0.0%
ABS                  0      0      24      20        0.0%
BITBANK8            50      0       0      21        0.0%
BITSFR20             0      0       0      21        0.0%
SFR20                0      0       0      21        0.0%
BANK8               50      0       0      22        0.0%
BITSFR21             0      0       0      22        0.0%
SFR21                0      0       0      22        0.0%
BITBANK9            50      0       0      23        0.0%
BITSFR22             0      0       0      23        0.0%
SFR22                0      0       0      23        0.0%
BANK9               50      0       0      24        0.0%
BITSFR23             0      0       0      24        0.0%
SFR23                0      0       0      24        0.0%
BITBANK10           50      0       0      25        0.0%
BITSFR24             0      0       0      25        0.0%
SFR24                0      0       0      25        0.0%
BANK10              50      0       0      26        0.0%
BITSFR25             0      0       0      26        0.0%
SFR25                0      0       0      26        0.0%
BITBANK11           50      0       0      27        0.0%
BITSFR26             0      0       0      27        0.0%
SFR26                0      0       0      27        0.0%
BANK11              50      0       0      28        0.0%
BITSFR27             0      0       0      28        0.0%
SFR27                0      0       0      28        0.0%
BITBANK12           30      0       0      29        0.0%
BITSFR28             0      0       0      29        0.0%
SFR28                0      0       0      29        0.0%
BANK12              30      0       0      30        0.0%
BITSFR29             0      0       0      30        0.0%
SFR29                0      0       0      30        0.0%
BITSFR30             0      0       0      31        0.0%
SFR30                0      0       0      31        0.0%
DATA                 0      0      24      31        0.0%
BITSFR31             0      0       0      32        0.0%
SFR31                0      0       0      32        0.0%


Microchip Technology PIC Macro Assembler V1.44 build -154322312 
Symbol Table                                                                                   Fri Jan 19 16:03:05 2018

                        __CFG_CP$OFF 0000                                   l50 0139  
                        __CFG_LVP$ON 0000                                  l228 003C  
                                l237 0046                                  l942 0151  
                       __CFG_CPD$OFF 0000              __size_of_PMD_Initialize 0008  
                       __CFG_BORV$LO 0000                                  wreg 0009  
                       ?_EUSART_Read 0070                         __CFG_ZCD$OFF 0000  
                               l1044 012E                                 l1080 0057  
                               l1058 014D                                 l1066 0173  
                               l1076 0050                                 l1088 0235  
                               STR_1 00D9                                 STR_2 0106  
                               STR_3 0073                                 STR_4 01F2  
                               STR_5 0206                                 STR_6 01DD  
                               _LATA 0016                                 _LATB 0017  
                               _LATC 0018                                 _LATD 0019  
                               _LATE 001A                                 _PMD0 0796  
                               _PMD1 0797                                 _PMD2 0798  
                               _PMD3 0799                                 _PMD4 079A  
                               _PMD5 079B                                 i1l62 01A5  
                               _WPUA 0F39                                 _WPUB 0F44  
                               _WPUC 0F4F                                 _WPUD 0F5A  
                               _WPUE 0F65                         __CFG_WRT$OFF 0000  
                      __CFG_FCMEN$ON 0000                                 _main 0230  
                               fsr0h 0005                                 fsr1h 0007  
                               indf0 0000                                 fsr0l 0004  
                               indf1 0001                                 fsr1l 0006  
                               btemp 007E                        __CFG_BOREN$ON 0000  
                               start 001D                        __CFG_CSWEN$ON 0000  
                      __CFG_MCLRE$ON 0000                        ?_EUSART_Write 0070  
     __size_of_OSCILLATOR_Initialize 000A                _UART_Demo_Command_INT 002C  
      __end_of_OSCILLATOR_Initialize 0230                                ?_main 0070  
                      __CFG_WDTE$OFF 0000                       __CFG_DEBUG$OFF 0000  
                              i1l190 0018                                i1l185 0013  
                              i1l984 01AD                                _OSCEN 0891  
                              _TRISA 0011                                _TRISB 0012  
                              _TRISC 0013                                _TRISD 0014  
                              _TRISE 0015                                _putch 0247  
                              status 0003                                wtemp0 007E  
                    __initialization 001F                         __end_of_main 0239  
                     ??_EUSART_Write 0072          ?_INTERRUPT_InterruptManager 0070  
                             ??_main 007A                               _ANSELA 0F38  
                             ?_putch 0070                               _ANSELB 0F43  
                             _ANSELC 0F4E                               _ANSELD 0F59  
                             _ANSELE 0F64                   __CFG_RSTOSC$HFINT1 0000  
                             _RC1REG 0119                               _RC1STA 011D  
                             _ODCONA 0F3A                               _ODCONB 0F45  
                             _ODCONC 0F50                               _RC6PPS 0F26  
                             _ODCOND 0F5B                               _ODCONE 0F66  
                     __CFG_WDTCCS$SC 0000                               _OSCFRQ 0893  
                             _TX1REG 011A                               _TX1STA 011E  
                     __CFG_PWRTE$OFF 0000                       __CFG_STVREN$ON 0000  
             ?_UART_Demo_Command_INT 0070                  _EUSART_Transmit_ISR 018B  
                             _printf 016E                       _PMD_Initialize 0239  
               ?_EUSART_Transmit_ISR 0070                 __size_of_EUSART_Read 001E  
                  _SYSTEM_Initialize 021A              __end_of__initialization 0028  
                 ?_SYSTEM_Initialize 0070                       __pcstackCOMMON 0070  
                ??_SYSTEM_Initialize 0073                        __end_of_putch 024C  
             __end_of_PMD_Initialize 0241            __end_of_SYSTEM_Initialize 0226  
              ??_EUSART_Transmit_ISR 0070                              ??_putch 0074  
                         __pbssBANK0 0020                 __end_of_EUSART_Write 0150  
        __size_of_EUSART_Receive_ISR 001B                           __pmaintext 0230  
                    __CFG_PPS1WAY$ON 0000                           __pintentry 0004  
                            ?_printf 0075                      ?_PMD_Initialize 0070  
                      _eusartRxCount 0031                              _SP1BRGH 011C  
                            _SP1BRGL 011B                              _OSCCON1 088D  
                            _OSCCON3 088F                              _OSCTUNE 0892  
               __CFG_SCANE$available 0000                              __ptext1 002C  
                            __ptext2 016E                              __ptext3 0247  
                            __ptext4 012D                              __ptext5 0150  
                            __ptext6 021A                              __ptext7 0239  
                            __ptext8 00AB                              __ptext9 0226  
                    __size_of_printf 001D                _OSCILLATOR_Initialize 0226  
           ??_PIN_MANAGER_Initialize 0072           __size_of_SYSTEM_Initialize 000C  
                            clrloop0 0242                 end_of_initialization 0028  
                  _EUSART_Initialize 01C3              ??_UART_Demo_Command_INT 0036  
                 ?_EUSART_Initialize 0070                              printf@c 0035  
                            printf@f 0075                __CFG_WDTCPS$WDTCPS_31 0000  
                ??_EUSART_Initialize 0072                __size_of_EUSART_Write 0023  
                   __CFG_FEXTOSC$OFF 0000                            _RXPPSbits 0ECB  
          __end_of_EUSART_Initialize 01DD                         _EUSART_Write 012D  
             ?_OSCILLATOR_Initialize 0070                       __end_of_printf 018B  
                start_initialization 001F      __size_of_PIN_MANAGER_Initialize 002E  
                      ??_EUSART_Read 0072                          putch@txData 0074  
                   __CFG_LPBOREN$OFF 0000                     ??_PMD_Initialize 0072  
                           ??_printf 0077          __end_of_EUSART_Transmit_ISR 01A8  
                        __pbssCOMMON 007A                            ___latbits 0002  
                      __pcstackBANK0 0034           __end_of_EUSART_Receive_ISR 01C3  
         __size_of_EUSART_Initialize 001A                  __end_of_EUSART_Read 016E  
                          __pnvBANK0 0037               _PIN_MANAGER_Initialize 00AB  
               EUSART_Read@readValue 0073                         _eusartRxHead 0033  
                       _eusartTxHead 007B                         _eusartRxTail 0032  
                       _eusartTxTail 007A         ??_INTERRUPT_InterruptManager 0071  
            _eusartTxBufferRemaining 0037                             _BAUD1CON 011F  
                          _read_char 0030                       __size_of_putch 0005  
                     _eusartRxBuffer 0020                       _eusartTxBuffer 0028  
                           _LATAbits 0016                            clear_ram0 0241  
                           _PIE3bits 0719  __size_of_INTERRUPT_InterruptManager 0019  
                           _PIR3bits 070F       __size_of_UART_Demo_Command_INT 0047  
      __end_of_UART_Demo_Command_INT 0073                          _EUSART_Read 0150  
            ??_OSCILLATOR_Initialize 0072                             __ptext10 01C3  
                           __ptext12 018B                             __ptext13 01A8  
                      __size_of_main 0009                 __CFG_WDTCWS$WDTCWS_7 0000  
                         _RC1STAbits 011D                             int$flags 007E  
 __end_of_INTERRUPT_InterruptManager 001D           _INTERRUPT_InterruptManager 0004  
                         _INTCONbits 000B                             intlevel1 0000  
            ?_PIN_MANAGER_Initialize 0070                    __CFG_CLKOUTEN$OFF 0000  
                           printf@ap 0034                   _EUSART_Receive_ISR 01A8  
                      __pstringtext1 0073                        __pstringtext2 00D9  
                      __pstringtext3 0106                        __pstringtext4 01DD  
                      __pstringtext5 01F2                        __pstringtext6 0206  
                      __pstringtext7 0000                  ?_EUSART_Receive_ISR 0070  
                 EUSART_Write@txData 0073         __size_of_EUSART_Transmit_ISR 001D  
     __end_of_PIN_MANAGER_Initialize 00D9                 ??_EUSART_Receive_ISR 0070  
